
loopback_iolibrary.elf:     file format elf32-avr

Sections:
Idx Name          Size      VMA       LMA       File off  Algn
  0 .data         000003a0  00800200  00001122  000011b6  2**0
                  CONTENTS, ALLOC, LOAD, DATA
  1 .text         00001122  00000000  00000000  00000094  2**1
                  CONTENTS, ALLOC, LOAD, READONLY, CODE
  2 .bss          0000000a  008005a0  008005a0  00001556  2**0
                  ALLOC
  3 .comment      0000005c  00000000  00000000  00001556  2**0
                  CONTENTS, READONLY
  4 .note.gnu.avr.deviceinfo 00000040  00000000  00000000  000015b4  2**2
                  CONTENTS, READONLY
  5 .debug_aranges 00000118  00000000  00000000  000015f4  2**0
                  CONTENTS, READONLY, DEBUGGING
  6 .debug_info   00001f3f  00000000  00000000  0000170c  2**0
                  CONTENTS, READONLY, DEBUGGING
  7 .debug_abbrev 000010b6  00000000  00000000  0000364b  2**0
                  CONTENTS, READONLY, DEBUGGING
  8 .debug_line   000009fe  00000000  00000000  00004701  2**0
                  CONTENTS, READONLY, DEBUGGING
  9 .debug_frame  000003bc  00000000  00000000  00005100  2**2
                  CONTENTS, READONLY, DEBUGGING
 10 .debug_str    00000857  00000000  00000000  000054bc  2**0
                  CONTENTS, READONLY, DEBUGGING
 11 .debug_loc    00000c83  00000000  00000000  00005d13  2**0
                  CONTENTS, READONLY, DEBUGGING
 12 .debug_ranges 000000d8  00000000  00000000  00006996  2**0
                  CONTENTS, READONLY, DEBUGGING

Disassembly of section .text:

00000000 <__vectors>:
       0:	9e c0       	rjmp	.+316    	; 0x13e <__ctors_end>
       2:	00 00       	nop
       4:	bb c0       	rjmp	.+374    	; 0x17c <__bad_interrupt>
       6:	00 00       	nop
       8:	b9 c0       	rjmp	.+370    	; 0x17c <__bad_interrupt>
       a:	00 00       	nop
       c:	b7 c0       	rjmp	.+366    	; 0x17c <__bad_interrupt>
       e:	00 00       	nop
      10:	b5 c0       	rjmp	.+362    	; 0x17c <__bad_interrupt>
      12:	00 00       	nop
      14:	b3 c0       	rjmp	.+358    	; 0x17c <__bad_interrupt>
      16:	00 00       	nop
      18:	b1 c0       	rjmp	.+354    	; 0x17c <__bad_interrupt>
      1a:	00 00       	nop
      1c:	af c0       	rjmp	.+350    	; 0x17c <__bad_interrupt>
      1e:	00 00       	nop
      20:	ad c0       	rjmp	.+346    	; 0x17c <__bad_interrupt>
      22:	00 00       	nop
      24:	ab c0       	rjmp	.+342    	; 0x17c <__bad_interrupt>
      26:	00 00       	nop
      28:	a9 c0       	rjmp	.+338    	; 0x17c <__bad_interrupt>
      2a:	00 00       	nop
      2c:	c1 c0       	rjmp	.+386    	; 0x1b0 <__vector_11>
      2e:	00 00       	nop
      30:	a5 c0       	rjmp	.+330    	; 0x17c <__bad_interrupt>
      32:	00 00       	nop
      34:	a3 c0       	rjmp	.+326    	; 0x17c <__bad_interrupt>
      36:	00 00       	nop
      38:	a1 c0       	rjmp	.+322    	; 0x17c <__bad_interrupt>
      3a:	00 00       	nop
      3c:	9f c0       	rjmp	.+318    	; 0x17c <__bad_interrupt>
      3e:	00 00       	nop
      40:	9d c0       	rjmp	.+314    	; 0x17c <__bad_interrupt>
      42:	00 00       	nop
      44:	9b c0       	rjmp	.+310    	; 0x17c <__bad_interrupt>
      46:	00 00       	nop
      48:	99 c0       	rjmp	.+306    	; 0x17c <__bad_interrupt>
      4a:	00 00       	nop
      4c:	97 c0       	rjmp	.+302    	; 0x17c <__bad_interrupt>
      4e:	00 00       	nop
      50:	95 c0       	rjmp	.+298    	; 0x17c <__bad_interrupt>
      52:	00 00       	nop
      54:	93 c0       	rjmp	.+294    	; 0x17c <__bad_interrupt>
      56:	00 00       	nop
      58:	91 c0       	rjmp	.+290    	; 0x17c <__bad_interrupt>
      5a:	00 00       	nop
      5c:	8f c0       	rjmp	.+286    	; 0x17c <__bad_interrupt>
      5e:	00 00       	nop
      60:	8d c0       	rjmp	.+282    	; 0x17c <__bad_interrupt>
      62:	00 00       	nop
      64:	8b c0       	rjmp	.+278    	; 0x17c <__bad_interrupt>
      66:	00 00       	nop
      68:	89 c0       	rjmp	.+274    	; 0x17c <__bad_interrupt>
      6a:	00 00       	nop
      6c:	87 c0       	rjmp	.+270    	; 0x17c <__bad_interrupt>
      6e:	00 00       	nop
      70:	85 c0       	rjmp	.+266    	; 0x17c <__bad_interrupt>
      72:	00 00       	nop
      74:	83 c0       	rjmp	.+262    	; 0x17c <__bad_interrupt>
      76:	00 00       	nop
      78:	81 c0       	rjmp	.+258    	; 0x17c <__bad_interrupt>
      7a:	00 00       	nop
      7c:	7f c0       	rjmp	.+254    	; 0x17c <__bad_interrupt>
      7e:	00 00       	nop
      80:	7d c0       	rjmp	.+250    	; 0x17c <__bad_interrupt>
      82:	00 00       	nop
      84:	7b c0       	rjmp	.+246    	; 0x17c <__bad_interrupt>
      86:	00 00       	nop
      88:	79 c0       	rjmp	.+242    	; 0x17c <__bad_interrupt>
      8a:	00 00       	nop
      8c:	77 c0       	rjmp	.+238    	; 0x17c <__bad_interrupt>
      8e:	00 00       	nop
      90:	75 c0       	rjmp	.+234    	; 0x17c <__bad_interrupt>
      92:	00 00       	nop
      94:	73 c0       	rjmp	.+230    	; 0x17c <__bad_interrupt>
      96:	00 00       	nop
      98:	71 c0       	rjmp	.+226    	; 0x17c <__bad_interrupt>
      9a:	00 00       	nop
      9c:	6f c0       	rjmp	.+222    	; 0x17c <__bad_interrupt>
      9e:	00 00       	nop
      a0:	6d c0       	rjmp	.+218    	; 0x17c <__bad_interrupt>
      a2:	00 00       	nop
      a4:	6b c0       	rjmp	.+214    	; 0x17c <__bad_interrupt>
      a6:	00 00       	nop
      a8:	69 c0       	rjmp	.+210    	; 0x17c <__bad_interrupt>
      aa:	00 00       	nop
      ac:	67 c0       	rjmp	.+206    	; 0x17c <__bad_interrupt>
      ae:	00 00       	nop
      b0:	65 c0       	rjmp	.+202    	; 0x17c <__bad_interrupt>
      b2:	00 00       	nop
      b4:	63 c0       	rjmp	.+198    	; 0x17c <__bad_interrupt>
      b6:	00 00       	nop
      b8:	61 c0       	rjmp	.+194    	; 0x17c <__bad_interrupt>
      ba:	00 00       	nop
      bc:	5f c0       	rjmp	.+190    	; 0x17c <__bad_interrupt>
      be:	00 00       	nop
      c0:	5d c0       	rjmp	.+186    	; 0x17c <__bad_interrupt>
      c2:	00 00       	nop
      c4:	5b c0       	rjmp	.+182    	; 0x17c <__bad_interrupt>
      c6:	00 00       	nop
      c8:	59 c0       	rjmp	.+178    	; 0x17c <__bad_interrupt>
      ca:	00 00       	nop
      cc:	57 c0       	rjmp	.+174    	; 0x17c <__bad_interrupt>
      ce:	00 00       	nop
      d0:	55 c0       	rjmp	.+170    	; 0x17c <__bad_interrupt>
      d2:	00 00       	nop
      d4:	53 c0       	rjmp	.+166    	; 0x17c <__bad_interrupt>
      d6:	00 00       	nop
      d8:	51 c0       	rjmp	.+162    	; 0x17c <__bad_interrupt>
      da:	00 00       	nop
      dc:	4f c0       	rjmp	.+158    	; 0x17c <__bad_interrupt>
      de:	00 00       	nop
      e0:	4d c0       	rjmp	.+154    	; 0x17c <__bad_interrupt>
	...

000000e4 <__trampolines_end>:
      e4:	41 54       	subi	r20, 0x41	; 65
      e6:	32 35       	cpi	r19, 0x52	; 82
      e8:	36 30       	cpi	r19, 0x06	; 6
	...

000000eb <str_prog_name>:
      eb:	0d 0a 41 74 4d 65 67 61 32 35 36 30 20 76 31 2e     ..AtMega2560 v1.
      fb:	30 20 55 44 50 20 53 65 6e 64 20 52 65 63 65 69     0 UDP Send Recei
     10b:	76 65 20 49 50 20 57 49 5a 4e 45 54 5f 35 35 30     ve IP WIZNET_550
     11b:	30 20 45 54 48 45 52 4e 45 54 0d 0a 00              0 ETHERNET...

00000128 <compile_time>:
     128:	32 33 3a 30 34 3a 32 31 00                          23:04:21.

00000131 <compile_date>:
     131:	4f 63 74 20 20 35 20 32 30 32 30 00 00              Oct  5 2020..

0000013e <__ctors_end>:
     13e:	11 24       	eor	r1, r1
     140:	1f be       	out	0x3f, r1	; 63
     142:	cf ef       	ldi	r28, 0xFF	; 255
     144:	d1 e2       	ldi	r29, 0x21	; 33
     146:	de bf       	out	0x3e, r29	; 62
     148:	cd bf       	out	0x3d, r28	; 61
     14a:	00 e0       	ldi	r16, 0x00	; 0
     14c:	0c bf       	out	0x3c, r16	; 60

0000014e <__do_copy_data>:
     14e:	15 e0       	ldi	r17, 0x05	; 5
     150:	a0 e0       	ldi	r26, 0x00	; 0
     152:	b2 e0       	ldi	r27, 0x02	; 2
     154:	e2 e2       	ldi	r30, 0x22	; 34
     156:	f1 e1       	ldi	r31, 0x11	; 17
     158:	00 e0       	ldi	r16, 0x00	; 0
     15a:	0b bf       	out	0x3b, r16	; 59
     15c:	02 c0       	rjmp	.+4      	; 0x162 <__do_copy_data+0x14>
     15e:	07 90       	elpm	r0, Z+
     160:	0d 92       	st	X+, r0
     162:	a0 3a       	cpi	r26, 0xA0	; 160
     164:	b1 07       	cpc	r27, r17
     166:	d9 f7       	brne	.-10     	; 0x15e <__do_copy_data+0x10>

00000168 <__do_clear_bss>:
     168:	25 e0       	ldi	r18, 0x05	; 5
     16a:	a0 ea       	ldi	r26, 0xA0	; 160
     16c:	b5 e0       	ldi	r27, 0x05	; 5
     16e:	01 c0       	rjmp	.+2      	; 0x172 <.do_clear_bss_start>

00000170 <.do_clear_bss_loop>:
     170:	1d 92       	st	X+, r1

00000172 <.do_clear_bss_start>:
     172:	aa 3a       	cpi	r26, 0xAA	; 170
     174:	b2 07       	cpc	r27, r18
     176:	e1 f7       	brne	.-8      	; 0x170 <.do_clear_bss_loop>
     178:	1b d4       	rcall	.+2102   	; 0x9b0 <main>
     17a:	d1 c7       	rjmp	.+4002   	; 0x111e <_exit>

0000017c <__bad_interrupt>:
     17c:	41 cf       	rjmp	.-382    	; 0x0 <__vectors>

0000017e <freeRam>:
#include "avr_utils.h"

// RAM Memory usage test
int freeRam (void){
     17e:	cf 93       	push	r28
     180:	df 93       	push	r29
     182:	1f 92       	push	r1
     184:	1f 92       	push	r1
     186:	cd b7       	in	r28, 0x3d	; 61
     188:	de b7       	in	r29, 0x3e	; 62
	extern int __heap_start, *__brkval;
	int v;
	int _res = (int) &v - (__brkval == 0 ? (int) &__heap_start : (int) __brkval);
     18a:	80 91 a0 05 	lds	r24, 0x05A0	; 0x8005a0 <__data_end>
     18e:	90 91 a1 05 	lds	r25, 0x05A1	; 0x8005a1 <__data_end+0x1>
     192:	00 97       	sbiw	r24, 0x00	; 0
     194:	11 f0       	breq	.+4      	; 0x19a <freeRam+0x1c>
     196:	9c 01       	movw	r18, r24
     198:	02 c0       	rjmp	.+4      	; 0x19e <freeRam+0x20>
     19a:	2a ea       	ldi	r18, 0xAA	; 170
     19c:	35 e0       	ldi	r19, 0x05	; 5
	return _res;
}
     19e:	ce 01       	movw	r24, r28
     1a0:	01 96       	adiw	r24, 0x01	; 1
     1a2:	82 1b       	sub	r24, r18
     1a4:	93 0b       	sbc	r25, r19
     1a6:	0f 90       	pop	r0
     1a8:	0f 90       	pop	r0
     1aa:	df 91       	pop	r29
     1ac:	cf 91       	pop	r28
     1ae:	08 95       	ret

000001b0 <__vector_11>:
void w5500_fetch_data(uint8_t socket_n);
void w5500_udp_status(uint8_t socket_n);
uint16_t w5500_get_rx_rd(uint8_t socket_n);
uint16_t w5500_get_msg_size(uint8_t socket_n);

ISR (PCINT2_vect){
     1b0:	1f 92       	push	r1
     1b2:	0f 92       	push	r0
     1b4:	0f b6       	in	r0, 0x3f	; 63
     1b6:	0f 92       	push	r0
     1b8:	11 24       	eor	r1, r1
     1ba:	0b b6       	in	r0, 0x3b	; 59
     1bc:	0f 92       	push	r0
     1be:	2f 93       	push	r18
     1c0:	3f 93       	push	r19
     1c2:	4f 93       	push	r20
     1c4:	5f 93       	push	r21
     1c6:	6f 93       	push	r22
     1c8:	7f 93       	push	r23
     1ca:	8f 93       	push	r24
     1cc:	9f 93       	push	r25
     1ce:	af 93       	push	r26
     1d0:	bf 93       	push	r27
     1d2:	ef 93       	push	r30
     1d4:	ff 93       	push	r31
	printf("INTERRUPTION ACTIVE FOR PCINT2\r\n");
     1d6:	85 e2       	ldi	r24, 0x25	; 37
     1d8:	92 e0       	ldi	r25, 0x02	; 2
     1da:	c4 d4       	rcall	.+2440   	; 0xb64 <puts>
	PORTB |= (1 << PB7);
     1dc:	2f 9a       	sbi	0x05, 7	; 5
}
     1de:	ff 91       	pop	r31
     1e0:	ef 91       	pop	r30
     1e2:	bf 91       	pop	r27
     1e4:	af 91       	pop	r26
     1e6:	9f 91       	pop	r25
     1e8:	8f 91       	pop	r24
     1ea:	7f 91       	pop	r23
     1ec:	6f 91       	pop	r22
     1ee:	5f 91       	pop	r21
     1f0:	4f 91       	pop	r20
     1f2:	3f 91       	pop	r19
     1f4:	2f 91       	pop	r18
     1f6:	0f 90       	pop	r0
     1f8:	0b be       	out	0x3b, r0	; 59
     1fa:	0f 90       	pop	r0
     1fc:	0f be       	out	0x3f, r0	; 63
     1fe:	0f 90       	pop	r0
     200:	1f 90       	pop	r1
     202:	18 95       	reti

00000204 <SPI_w5500_tx_byte>:
	}
}



void SPI_w5500_tx_byte(uint32_t addr, uint8_t* data, uint8_t data_len){
     204:	8f 92       	push	r8
     206:	9f 92       	push	r9
     208:	af 92       	push	r10
     20a:	bf 92       	push	r11
     20c:	cf 92       	push	r12
     20e:	df 92       	push	r13
     210:	ef 92       	push	r14
     212:	ff 92       	push	r15
     214:	0f 93       	push	r16
     216:	1f 93       	push	r17
     218:	cf 93       	push	r28
     21a:	df 93       	push	r29
     21c:	00 d0       	rcall	.+0      	; 0x21e <SPI_w5500_tx_byte+0x1a>
     21e:	cd b7       	in	r28, 0x3d	; 61
     220:	de b7       	in	r29, 0x3e	; 62
     222:	6a 01       	movw	r12, r20
     224:	f2 2e       	mov	r15, r18
	
	// W instruction to control phase
	
	uint8_t spi_vector[3];
	spi_vector[0] = addr >> 16;
     226:	89 83       	std	Y+1, r24	; 0x01
	spi_vector[1] = addr >> 8;
     228:	7a 83       	std	Y+2, r23	; 0x02
	spi_vector[2] = addr & 0xFF;
     22a:	6b 83       	std	Y+3, r22	; 0x03
	//spi_vector[2]+=0x04;
	
	
	// start transmission
	
	SPI_EnableTransmission();
     22c:	68 d4       	rcall	.+2256   	; 0xafe <SPI_EnableTransmission>
     22e:	8e 01       	movw	r16, r28
     230:	0f 5f       	subi	r16, 0xFF	; 255
     232:	1f 4f       	sbci	r17, 0xFF	; 255
     234:	4e 01       	movw	r8, r28
     236:	84 e0       	ldi	r24, 0x04	; 4
     238:	88 0e       	add	r8, r24
     23a:	91 1c       	adc	r9, r1
		SPI_MasterTransmit(spi_vector[i]);
		if (DEBUG_ENABLE && i!=2){
			printf("0x%x ", spi_vector[i]);
		}
		else{
			printf("0x%x ", spi_vector[i]);
     23c:	0f 2e       	mov	r0, r31
     23e:	f6 e7       	ldi	r31, 0x76	; 118
     240:	af 2e       	mov	r10, r31
     242:	f3 e0       	ldi	r31, 0x03	; 3
     244:	bf 2e       	mov	r11, r31
     246:	f0 2d       	mov	r31, r0
	// start transmission
	
	SPI_EnableTransmission();
		
	for(uint8_t i=0;i<sizeof(spi_vector);i++){
		SPI_MasterTransmit(spi_vector[i]);
     248:	f8 01       	movw	r30, r16
     24a:	e1 90       	ld	r14, Z+
     24c:	8f 01       	movw	r16, r30
     24e:	8e 2d       	mov	r24, r14
     250:	4a d4       	rcall	.+2196   	; 0xae6 <SPI_MasterTransmit>
		if (DEBUG_ENABLE && i!=2){
			printf("0x%x ", spi_vector[i]);
		}
		else{
			printf("0x%x ", spi_vector[i]);
     252:	1f 92       	push	r1
     254:	ef 92       	push	r14
     256:	bf 92       	push	r11
     258:	af 92       	push	r10
     25a:	71 d4       	rcall	.+2274   	; 0xb3e <printf>
	
	// start transmission
	
	SPI_EnableTransmission();
		
	for(uint8_t i=0;i<sizeof(spi_vector);i++){
     25c:	0f 90       	pop	r0
     25e:	0f 90       	pop	r0
     260:	0f 90       	pop	r0
     262:	0f 90       	pop	r0
     264:	08 15       	cp	r16, r8
     266:	19 05       	cpc	r17, r9
     268:	79 f7       	brne	.-34     	; 0x248 <SPI_w5500_tx_byte+0x44>
		else{
			printf("0x%x ", spi_vector[i]);
		}
	}
	
	for(uint8_t i=0;i<data_len;i++){
     26a:	ff 20       	and	r15, r15
     26c:	81 f0       	breq	.+32     	; 0x28e <SPI_w5500_tx_byte+0x8a>
     26e:	86 01       	movw	r16, r12
     270:	fa 94       	dec	r15
     272:	ef 2c       	mov	r14, r15
     274:	f1 2c       	mov	r15, r1
     276:	ff ef       	ldi	r31, 0xFF	; 255
     278:	ef 1a       	sub	r14, r31
     27a:	ff 0a       	sbc	r15, r31
     27c:	ec 0c       	add	r14, r12
     27e:	fd 1c       	adc	r15, r13
		SPI_MasterTransmit(data[i]);
     280:	f8 01       	movw	r30, r16
     282:	81 91       	ld	r24, Z+
     284:	8f 01       	movw	r16, r30
     286:	2f d4       	rcall	.+2142   	; 0xae6 <SPI_MasterTransmit>
		else{
			printf("0x%x ", spi_vector[i]);
		}
	}
	
	for(uint8_t i=0;i<data_len;i++){
     288:	0e 15       	cp	r16, r14
     28a:	1f 05       	cpc	r17, r15
     28c:	c9 f7       	brne	.-14     	; 0x280 <SPI_w5500_tx_byte+0x7c>
		SPI_MasterTransmit(data[i]);
		if (DEBUG_ENABLE){printf("0x%x ", (data[i]));}
	}
	
	if (DEBUG_ENABLE){printf("\n\r");}
	SPI_DisableTransmission();
     28e:	39 d4       	rcall	.+2162   	; 0xb02 <SPI_DisableTransmission>
     290:	0f 90       	pop	r0
}
     292:	0f 90       	pop	r0
     294:	0f 90       	pop	r0
     296:	df 91       	pop	r29
     298:	cf 91       	pop	r28
     29a:	1f 91       	pop	r17
     29c:	0f 91       	pop	r16
     29e:	ff 90       	pop	r15
     2a0:	ef 90       	pop	r14
     2a2:	df 90       	pop	r13
     2a4:	cf 90       	pop	r12
     2a6:	bf 90       	pop	r11
     2a8:	af 90       	pop	r10
     2aa:	9f 90       	pop	r9
     2ac:	8f 90       	pop	r8
     2ae:	08 95       	ret

000002b0 <SPI_w5500_rx_byte>:
     2b0:	1f 93       	push	r17

uint8_t SPI_w5500_rx_byte(uint32_t addr){
     2b2:	cf 93       	push	r28
     2b4:	df 93       	push	r29
     2b6:	c6 2f       	mov	r28, r22
     2b8:	d7 2f       	mov	r29, r23
     2ba:	18 2f       	mov	r17, r24
	spi_vector[1] = (addr >> 8) & 0xFF;
	spi_vector[2] = addr & 0xFF;
	
	// start transmission
	
	SPI_EnableTransmission();
     2bc:	20 d4       	rcall	.+2112   	; 0xafe <SPI_EnableTransmission>
	
	for(uint8_t i=0;i<sizeof(spi_vector);i++){
		SPI_MasterTransmit(spi_vector[i]);
     2be:	81 2f       	mov	r24, r17
     2c0:	12 d4       	rcall	.+2084   	; 0xae6 <SPI_MasterTransmit>
     2c2:	8d 2f       	mov	r24, r29
     2c4:	10 d4       	rcall	.+2080   	; 0xae6 <SPI_MasterTransmit>
     2c6:	8c 2f       	mov	r24, r28
		if (DEBUG_ENABLE){
			if(DEBUG_ENABLE){printf("0x%x \t|", (spi_vector[i]));}
		}
	}
	
	rx_data = SPI_MasterReceive();
     2c8:	0e d4       	rcall	.+2076   	; 0xae6 <SPI_MasterTransmit>
     2ca:	12 d4       	rcall	.+2084   	; 0xaf0 <SPI_MasterReceive>
     2cc:	c8 2f       	mov	r28, r24
	if(DEBUG_ENABLE){printf("0x%x \t\r\n", rx_data);}
		
	SPI_DisableTransmission();
     2ce:	19 d4       	rcall	.+2098   	; 0xb02 <SPI_DisableTransmission>
     2d0:	8c 2f       	mov	r24, r28
	
	return rx_data;
}
     2d2:	df 91       	pop	r29
     2d4:	cf 91       	pop	r28
     2d6:	1f 91       	pop	r17
     2d8:	08 95       	ret

000002da <w5500_set_nic>:
     2da:	ef 92       	push	r14

void w5500_set_nic(wiz_NetInfo net_data){
     2dc:	ff 92       	push	r15
     2de:	0f 93       	push	r16
     2e0:	1f 93       	push	r17
     2e2:	cf 93       	push	r28
     2e4:	df 93       	push	r29
     2e6:	cd b7       	in	r28, 0x3d	; 61
     2e8:	de b7       	in	r29, 0x3e	; 62
	/************************************************************************/
	/* Send IP configuration to W5500                                       */
	/************************************************************************/
	// IP ADDR
	printf("\r\n------ IP ADDR: ------\r\n");
     2ea:	85 e4       	ldi	r24, 0x45	; 69
     2ec:	92 e0       	ldi	r25, 0x02	; 2
     2ee:	3a d4       	rcall	.+2164   	; 0xb64 <puts>
     2f0:	7e 01       	movw	r14, r28
     2f2:	80 e1       	ldi	r24, 0x10	; 16
     2f4:	e8 0e       	add	r14, r24
     2f6:	f1 1c       	adc	r15, r1
	for(uint16_t i=0;i<sizeof(net_data.ip);i++){
     2f8:	00 e0       	ldi	r16, 0x00	; 0
     2fa:	10 e0       	ldi	r17, 0x00	; 0
		SPI_w5500_tx_byte(SIPR + _W5500_SPI_WRITE_ + (i << 8), &net_data.ip[i],sizeof(net_data.ip[i]));
     2fc:	70 2f       	mov	r23, r16
     2fe:	66 27       	eor	r22, r22
     300:	6c 5f       	subi	r22, 0xFC	; 252
     302:	70 4f       	sbci	r23, 0xF0	; 240
     304:	80 e0       	ldi	r24, 0x00	; 0
     306:	90 e0       	ldi	r25, 0x00	; 0
     308:	21 e0       	ldi	r18, 0x01	; 1
     30a:	a7 01       	movw	r20, r14
     30c:	7b df       	rcall	.-266    	; 0x204 <SPI_w5500_tx_byte>
	/************************************************************************/
	/* Send IP configuration to W5500                                       */
	/************************************************************************/
	// IP ADDR
	printf("\r\n------ IP ADDR: ------\r\n");
	for(uint16_t i=0;i<sizeof(net_data.ip);i++){
     30e:	0f 5f       	subi	r16, 0xFF	; 255
     310:	1f 4f       	sbci	r17, 0xFF	; 255
     312:	9f ef       	ldi	r25, 0xFF	; 255
     314:	e9 1a       	sub	r14, r25
     316:	f9 0a       	sbc	r15, r25
     318:	04 30       	cpi	r16, 0x04	; 4
     31a:	11 05       	cpc	r17, r1
     31c:	79 f7       	brne	.-34     	; 0x2fc <w5500_set_nic+0x22>
		SPI_w5500_tx_byte(SIPR + _W5500_SPI_WRITE_ + (i << 8), &net_data.ip[i],sizeof(net_data.ip[i]));
	}
	
	// MAC ADDR
	printf("\r\n------ MAC ADDR ------\r\n");
     31e:	8f e5       	ldi	r24, 0x5F	; 95
     320:	92 e0       	ldi	r25, 0x02	; 2
     322:	20 d4       	rcall	.+2112   	; 0xb64 <puts>
     324:	ce 01       	movw	r24, r28
     326:	0a 96       	adiw	r24, 0x0a	; 10
     328:	7c 01       	movw	r14, r24
	for(uint16_t i=0;i<sizeof(net_data.mac);i++){
     32a:	00 e0       	ldi	r16, 0x00	; 0
     32c:	10 e0       	ldi	r17, 0x00	; 0
		SPI_w5500_tx_byte(SHAR + _W5500_SPI_WRITE_ + (i << 8), &net_data.mac[i],sizeof(net_data.mac[i]));
     32e:	70 2f       	mov	r23, r16
     330:	66 27       	eor	r22, r22
     332:	6c 5f       	subi	r22, 0xFC	; 252
     334:	76 4f       	sbci	r23, 0xF6	; 246
     336:	80 e0       	ldi	r24, 0x00	; 0
     338:	90 e0       	ldi	r25, 0x00	; 0
     33a:	21 e0       	ldi	r18, 0x01	; 1
     33c:	a7 01       	movw	r20, r14
     33e:	62 df       	rcall	.-316    	; 0x204 <SPI_w5500_tx_byte>
		SPI_w5500_tx_byte(SIPR + _W5500_SPI_WRITE_ + (i << 8), &net_data.ip[i],sizeof(net_data.ip[i]));
	}
	
	// MAC ADDR
	printf("\r\n------ MAC ADDR ------\r\n");
	for(uint16_t i=0;i<sizeof(net_data.mac);i++){
     340:	0f 5f       	subi	r16, 0xFF	; 255
     342:	1f 4f       	sbci	r17, 0xFF	; 255
     344:	9f ef       	ldi	r25, 0xFF	; 255
     346:	e9 1a       	sub	r14, r25
     348:	f9 0a       	sbc	r15, r25
     34a:	06 30       	cpi	r16, 0x06	; 6
     34c:	11 05       	cpc	r17, r1
		SPI_w5500_tx_byte(SHAR + _W5500_SPI_WRITE_ + (i << 8), &net_data.mac[i],sizeof(net_data.mac[i]));
	}
	
	// GW IP ADD
	printf("\r\n------ GW IP ADD ------\r\n");
     34e:	79 f7       	brne	.-34     	; 0x32e <w5500_set_nic+0x54>
     350:	89 e7       	ldi	r24, 0x79	; 121
     352:	92 e0       	ldi	r25, 0x02	; 2
     354:	07 d4       	rcall	.+2062   	; 0xb64 <puts>
     356:	7e 01       	movw	r14, r28
     358:	88 e1       	ldi	r24, 0x18	; 24
     35a:	e8 0e       	add	r14, r24
     35c:	f1 1c       	adc	r15, r1
	for(uint16_t i=0;i<sizeof(net_data.gw);i++){
     35e:	00 e0       	ldi	r16, 0x00	; 0
     360:	10 e0       	ldi	r17, 0x00	; 0
		SPI_w5500_tx_byte(GAR + _W5500_SPI_WRITE_ + (i << 8), &net_data.gw[i],sizeof(net_data.gw[i]));
     362:	70 2f       	mov	r23, r16
     364:	66 27       	eor	r22, r22
     366:	6c 5f       	subi	r22, 0xFC	; 252
     368:	7e 4f       	sbci	r23, 0xFE	; 254
     36a:	80 e0       	ldi	r24, 0x00	; 0
     36c:	90 e0       	ldi	r25, 0x00	; 0
     36e:	21 e0       	ldi	r18, 0x01	; 1
     370:	a7 01       	movw	r20, r14
     372:	48 df       	rcall	.-368    	; 0x204 <SPI_w5500_tx_byte>
		SPI_w5500_tx_byte(SHAR + _W5500_SPI_WRITE_ + (i << 8), &net_data.mac[i],sizeof(net_data.mac[i]));
	}
	
	// GW IP ADD
	printf("\r\n------ GW IP ADD ------\r\n");
	for(uint16_t i=0;i<sizeof(net_data.gw);i++){
     374:	0f 5f       	subi	r16, 0xFF	; 255
     376:	1f 4f       	sbci	r17, 0xFF	; 255
     378:	9f ef       	ldi	r25, 0xFF	; 255
     37a:	e9 1a       	sub	r14, r25
     37c:	f9 0a       	sbc	r15, r25
     37e:	04 30       	cpi	r16, 0x04	; 4
     380:	11 05       	cpc	r17, r1
		SPI_w5500_tx_byte(GAR + _W5500_SPI_WRITE_ + (i << 8), &net_data.gw[i],sizeof(net_data.gw[i]));
	}
	
	// NET MASK
	printf("\r\n------ NET MASK ------\r\n");
     382:	79 f7       	brne	.-34     	; 0x362 <w5500_set_nic+0x88>
     384:	84 e9       	ldi	r24, 0x94	; 148
     386:	92 e0       	ldi	r25, 0x02	; 2
     388:	ed d3       	rcall	.+2010   	; 0xb64 <puts>
     38a:	7e 01       	movw	r14, r28
     38c:	84 e1       	ldi	r24, 0x14	; 20
     38e:	e8 0e       	add	r14, r24
     390:	f1 1c       	adc	r15, r1
	for(uint16_t i=0;i<sizeof(net_data.sn);i++){
     392:	00 e0       	ldi	r16, 0x00	; 0
     394:	10 e0       	ldi	r17, 0x00	; 0
		SPI_w5500_tx_byte(SUBR + _W5500_SPI_WRITE_ + (i << 8), &net_data.sn[i],sizeof(net_data.sn[i]));
     396:	70 2f       	mov	r23, r16
     398:	66 27       	eor	r22, r22
     39a:	6c 5f       	subi	r22, 0xFC	; 252
     39c:	7a 4f       	sbci	r23, 0xFA	; 250
     39e:	80 e0       	ldi	r24, 0x00	; 0
     3a0:	90 e0       	ldi	r25, 0x00	; 0
     3a2:	21 e0       	ldi	r18, 0x01	; 1
     3a4:	a7 01       	movw	r20, r14
     3a6:	2e df       	rcall	.-420    	; 0x204 <SPI_w5500_tx_byte>
		SPI_w5500_tx_byte(GAR + _W5500_SPI_WRITE_ + (i << 8), &net_data.gw[i],sizeof(net_data.gw[i]));
	}
	
	// NET MASK
	printf("\r\n------ NET MASK ------\r\n");
	for(uint16_t i=0;i<sizeof(net_data.sn);i++){
     3a8:	0f 5f       	subi	r16, 0xFF	; 255
     3aa:	1f 4f       	sbci	r17, 0xFF	; 255
     3ac:	9f ef       	ldi	r25, 0xFF	; 255
     3ae:	e9 1a       	sub	r14, r25
     3b0:	f9 0a       	sbc	r15, r25
     3b2:	04 30       	cpi	r16, 0x04	; 4
     3b4:	11 05       	cpc	r17, r1
     3b6:	79 f7       	brne	.-34     	; 0x396 <w5500_set_nic+0xbc>
		SPI_w5500_tx_byte(SUBR + _W5500_SPI_WRITE_ + (i << 8), &net_data.sn[i],sizeof(net_data.sn[i]));

	}
}
     3b8:	df 91       	pop	r29
     3ba:	cf 91       	pop	r28
     3bc:	1f 91       	pop	r17
     3be:	0f 91       	pop	r16
     3c0:	ff 90       	pop	r15
     3c2:	ef 90       	pop	r14
     3c4:	08 95       	ret

000003c6 <w5500_get_nic>:

void w5500_get_nic(){
     3c6:	cf 93       	push	r28
     3c8:	df 93       	push	r29
	uint8_t mac_addr[6];
	uint8_t gw_addr[4];
	uint8_t net_mask[4]; 
	
	// IP ADDR
	printf("\r\n------ GET IP ADDR: ------\r\n");
     3ca:	8e ea       	ldi	r24, 0xAE	; 174
     3cc:	92 e0       	ldi	r25, 0x02	; 2
     3ce:	ca d3       	rcall	.+1940   	; 0xb64 <puts>
	for(uint16_t i=0;i<sizeof(ip_addr);i++){
     3d0:	c0 e0       	ldi	r28, 0x00	; 0
     3d2:	d0 e0       	ldi	r29, 0x00	; 0
		ip_addr[i] = SPI_w5500_rx_byte(SIPR + (i << 8));
     3d4:	7c 2f       	mov	r23, r28
     3d6:	66 27       	eor	r22, r22
     3d8:	71 5f       	subi	r23, 0xF1	; 241
     3da:	80 e0       	ldi	r24, 0x00	; 0
     3dc:	90 e0       	ldi	r25, 0x00	; 0
     3de:	68 df       	rcall	.-304    	; 0x2b0 <SPI_w5500_rx_byte>
	uint8_t gw_addr[4];
	uint8_t net_mask[4]; 
	
	// IP ADDR
	printf("\r\n------ GET IP ADDR: ------\r\n");
	for(uint16_t i=0;i<sizeof(ip_addr);i++){
     3e0:	21 96       	adiw	r28, 0x01	; 1
     3e2:	c4 30       	cpi	r28, 0x04	; 4
     3e4:	d1 05       	cpc	r29, r1
     3e6:	b1 f7       	brne	.-20     	; 0x3d4 <w5500_get_nic+0xe>
		ip_addr[i] = SPI_w5500_rx_byte(SIPR + (i << 8));
	}
	
	// MAC ADDR
	printf("\r\n------ GET MAC ADDR ------\r\n");
     3e8:	8c ec       	ldi	r24, 0xCC	; 204
     3ea:	92 e0       	ldi	r25, 0x02	; 2
     3ec:	bb d3       	rcall	.+1910   	; 0xb64 <puts>
	for(uint16_t i=0;i<sizeof(mac_addr);i++){
     3ee:	c0 e0       	ldi	r28, 0x00	; 0
     3f0:	d0 e0       	ldi	r29, 0x00	; 0
		mac_addr[i] = SPI_w5500_rx_byte(SHAR + (i << 8));
     3f2:	7c 2f       	mov	r23, r28
     3f4:	66 27       	eor	r22, r22
     3f6:	77 5f       	subi	r23, 0xF7	; 247
     3f8:	80 e0       	ldi	r24, 0x00	; 0
     3fa:	90 e0       	ldi	r25, 0x00	; 0
     3fc:	59 df       	rcall	.-334    	; 0x2b0 <SPI_w5500_rx_byte>
		ip_addr[i] = SPI_w5500_rx_byte(SIPR + (i << 8));
	}
	
	// MAC ADDR
	printf("\r\n------ GET MAC ADDR ------\r\n");
	for(uint16_t i=0;i<sizeof(mac_addr);i++){
     3fe:	21 96       	adiw	r28, 0x01	; 1
     400:	c6 30       	cpi	r28, 0x06	; 6
     402:	d1 05       	cpc	r29, r1
		mac_addr[i] = SPI_w5500_rx_byte(SHAR + (i << 8));
	}
	
	// GW IP ADD
	printf("\r\n------ GET GW IP ADD ------\r\n");
     404:	b1 f7       	brne	.-20     	; 0x3f2 <w5500_get_nic+0x2c>
     406:	8a ee       	ldi	r24, 0xEA	; 234
     408:	92 e0       	ldi	r25, 0x02	; 2
     40a:	ac d3       	rcall	.+1880   	; 0xb64 <puts>
	for(uint16_t i=0;i<sizeof(gw_addr);i++){
     40c:	c0 e0       	ldi	r28, 0x00	; 0
     40e:	d0 e0       	ldi	r29, 0x00	; 0
		gw_addr[i] = SPI_w5500_rx_byte(GAR + (i << 8));
     410:	7c 2f       	mov	r23, r28
     412:	66 27       	eor	r22, r22
     414:	73 95       	inc	r23
     416:	80 e0       	ldi	r24, 0x00	; 0
     418:	90 e0       	ldi	r25, 0x00	; 0
     41a:	4a df       	rcall	.-364    	; 0x2b0 <SPI_w5500_rx_byte>
		mac_addr[i] = SPI_w5500_rx_byte(SHAR + (i << 8));
	}
	
	// GW IP ADD
	printf("\r\n------ GET GW IP ADD ------\r\n");
	for(uint16_t i=0;i<sizeof(gw_addr);i++){
     41c:	21 96       	adiw	r28, 0x01	; 1
     41e:	c4 30       	cpi	r28, 0x04	; 4
     420:	d1 05       	cpc	r29, r1
		gw_addr[i] = SPI_w5500_rx_byte(GAR + (i << 8));
	}
	
	// NET MASK
	printf("\r\n------ GET NET MASK ------\r\n");
     422:	b1 f7       	brne	.-20     	; 0x410 <__LOCK_REGION_LENGTH__+0x10>
     424:	89 e0       	ldi	r24, 0x09	; 9
     426:	93 e0       	ldi	r25, 0x03	; 3
     428:	9d d3       	rcall	.+1850   	; 0xb64 <puts>
	for(uint16_t i=0;i<sizeof(net_mask);i++){
     42a:	c0 e0       	ldi	r28, 0x00	; 0
		net_mask[i] = SPI_w5500_rx_byte(SUBR + (i << 8));
     42c:	d0 e0       	ldi	r29, 0x00	; 0
     42e:	7c 2f       	mov	r23, r28
     430:	66 27       	eor	r22, r22
     432:	7b 5f       	subi	r23, 0xFB	; 251
     434:	80 e0       	ldi	r24, 0x00	; 0
     436:	90 e0       	ldi	r25, 0x00	; 0
     438:	3b df       	rcall	.-394    	; 0x2b0 <SPI_w5500_rx_byte>
		gw_addr[i] = SPI_w5500_rx_byte(GAR + (i << 8));
	}
	
	// NET MASK
	printf("\r\n------ GET NET MASK ------\r\n");
	for(uint16_t i=0;i<sizeof(net_mask);i++){
     43a:	21 96       	adiw	r28, 0x01	; 1
     43c:	c4 30       	cpi	r28, 0x04	; 4
     43e:	d1 05       	cpc	r29, r1
     440:	b1 f7       	brne	.-20     	; 0x42e <__LOCK_REGION_LENGTH__+0x2e>
		printf("HW ADDR: %u:%u:%u:%u:%u:%u\n", mac_addr[0],mac_addr[1],mac_addr[2],mac_addr[3],mac_addr[4],mac_addr[5]);
	}
	
	//@TODO: return struct
	
}
     442:	df 91       	pop	r29
     444:	cf 91       	pop	r28
     446:	08 95       	ret

00000448 <w5500_udp_init>:

void w5500_udp_init(uint8_t socket_n, uint16_t udp_port_n){
     448:	df 92       	push	r13
     44a:	ef 92       	push	r14
     44c:	ff 92       	push	r15
     44e:	0f 93       	push	r16
     450:	1f 93       	push	r17
     452:	cf 93       	push	r28
     454:	df 93       	push	r29
     456:	00 d0       	rcall	.+0      	; 0x458 <w5500_udp_init+0x10>
     458:	cd b7       	in	r28, 0x3d	; 61
     45a:	de b7       	in	r29, 0x3e	; 62
     45c:	f8 2e       	mov	r15, r24
     45e:	d6 2e       	mov	r13, r22
     460:	e7 2e       	mov	r14, r23
	
	if(VERBOSE){printf("\r\n------- INITIALIZING UDP ----------\r\n");}
     462:	87 e2       	ldi	r24, 0x27	; 39
     464:	93 e0       	ldi	r25, 0x03	; 3
     466:	7e d3       	rcall	.+1788   	; 0xb64 <puts>
	if(VERBOSE){printf("Socket #%d Port #%u\n\r", socket_n, udp_port_n);}
     468:	0f 2d       	mov	r16, r15
     46a:	10 e0       	ldi	r17, 0x00	; 0
     46c:	ef 92       	push	r14
     46e:	df 92       	push	r13
     470:	1f 92       	push	r1
     472:	ff 92       	push	r15
     474:	8e e4       	ldi	r24, 0x4E	; 78
     476:	93 e0       	ldi	r25, 0x03	; 3
     478:	9f 93       	push	r25
     47a:	8f 93       	push	r24
     47c:	60 d3       	rcall	.+1728   	; 0xb3e <printf>
		
	uint8_t data = 2;	
     47e:	68 94       	set
     480:	ff 24       	eor	r15, r15
     482:	f1 f8       	bld	r15, 1
     484:	f9 82       	std	Y+1, r15	; 0x01
		
	// BUFFER ALLOCATION
	if(VERBOSE){printf("Sn_RXBUF_SIZE: %x@0x%x ", data, (Sn_RXBUF_SIZE(socket_n)));}
     486:	00 0f       	add	r16, r16
     488:	11 1f       	adc	r17, r17
     48a:	00 0f       	add	r16, r16
     48c:	11 1f       	adc	r17, r17
     48e:	0f 5f       	subi	r16, 0xFF	; 255
     490:	1f 4f       	sbci	r17, 0xFF	; 255
     492:	00 0f       	add	r16, r16
     494:	11 1f       	adc	r17, r17
     496:	00 0f       	add	r16, r16
     498:	11 1f       	adc	r17, r17
     49a:	00 0f       	add	r16, r16
     49c:	11 1f       	adc	r17, r17
     49e:	c8 01       	movw	r24, r16
     4a0:	92 5e       	subi	r25, 0xE2	; 226
     4a2:	9f 93       	push	r25
     4a4:	8f 93       	push	r24
     4a6:	1f 92       	push	r1
     4a8:	ff 92       	push	r15
     4aa:	84 e6       	ldi	r24, 0x64	; 100
     4ac:	93 e0       	ldi	r25, 0x03	; 3
     4ae:	9f 93       	push	r25
     4b0:	8f 93       	push	r24
     4b2:	45 d3       	rcall	.+1674   	; 0xb3e <printf>
	SPI_w5500_tx_byte((Sn_RXBUF_SIZE(socket_n)+_W5500_SPI_WRITE_),&data,sizeof(data));
     4b4:	b8 01       	movw	r22, r16
     4b6:	6c 5f       	subi	r22, 0xFC	; 252
     4b8:	71 4e       	sbci	r23, 0xE1	; 225
     4ba:	07 2e       	mov	r0, r23
     4bc:	00 0c       	add	r0, r0
     4be:	88 0b       	sbc	r24, r24
     4c0:	99 0b       	sbc	r25, r25
     4c2:	21 e0       	ldi	r18, 0x01	; 1
     4c4:	ae 01       	movw	r20, r28
     4c6:	4f 5f       	subi	r20, 0xFF	; 255
     4c8:	5f 4f       	sbci	r21, 0xFF	; 255
     4ca:	9c de       	rcall	.-712    	; 0x204 <SPI_w5500_tx_byte>
	if(VERBOSE){printf("Sn_TXBUF_SIZE: %x@0x%x ", data, (Sn_TXBUF_SIZE(socket_n)));}
     4cc:	c8 01       	movw	r24, r16
     4ce:	91 5e       	subi	r25, 0xE1	; 225
     4d0:	9f 93       	push	r25
     4d2:	8f 93       	push	r24
     4d4:	89 81       	ldd	r24, Y+1	; 0x01
     4d6:	1f 92       	push	r1
     4d8:	8f 93       	push	r24
     4da:	8c e7       	ldi	r24, 0x7C	; 124
     4dc:	93 e0       	ldi	r25, 0x03	; 3
     4de:	9f 93       	push	r25
     4e0:	8f 93       	push	r24
     4e2:	2d d3       	rcall	.+1626   	; 0xb3e <printf>
	SPI_w5500_tx_byte((Sn_TXBUF_SIZE(socket_n)+_W5500_SPI_WRITE_),&data,sizeof(data));
     4e4:	b8 01       	movw	r22, r16
     4e6:	6c 5f       	subi	r22, 0xFC	; 252
     4e8:	70 4e       	sbci	r23, 0xE0	; 224
     4ea:	07 2e       	mov	r0, r23
     4ec:	00 0c       	add	r0, r0
     4ee:	88 0b       	sbc	r24, r24
     4f0:	99 0b       	sbc	r25, r25
     4f2:	21 e0       	ldi	r18, 0x01	; 1
     4f4:	ae 01       	movw	r20, r28
     4f6:	4f 5f       	subi	r20, 0xFF	; 255
     4f8:	5f 4f       	sbci	r21, 0xFF	; 255
     4fa:	84 de       	rcall	.-760    	; 0x204 <SPI_w5500_tx_byte>
		
		
	// UDP MODE
	
	data = Sn_MR_UDP;
     4fc:	f9 82       	std	Y+1, r15	; 0x01
	if(VERBOSE){printf("SnMR: %x@0x%x ", data, (Sn_MR(socket_n)));}
     4fe:	1f 93       	push	r17
     500:	0f 93       	push	r16
     502:	1f 92       	push	r1
     504:	ff 92       	push	r15
     506:	84 e9       	ldi	r24, 0x94	; 148
     508:	93 e0       	ldi	r25, 0x03	; 3
     50a:	9f 93       	push	r25
     50c:	8f 93       	push	r24
     50e:	17 d3       	rcall	.+1582   	; 0xb3e <printf>
	SPI_w5500_tx_byte((Sn_MR(socket_n)+_W5500_SPI_WRITE_),&data,sizeof(data));
     510:	b8 01       	movw	r22, r16
     512:	6c 5f       	subi	r22, 0xFC	; 252
     514:	7f 4f       	sbci	r23, 0xFF	; 255
     516:	07 2e       	mov	r0, r23
     518:	00 0c       	add	r0, r0
     51a:	88 0b       	sbc	r24, r24
     51c:	99 0b       	sbc	r25, r25
     51e:	21 e0       	ldi	r18, 0x01	; 1
     520:	ae 01       	movw	r20, r28
     522:	4f 5f       	subi	r20, 0xFF	; 255
     524:	5f 4f       	sbci	r21, 0xFF	; 255
     526:	6e de       	rcall	.-804    	; 0x204 <SPI_w5500_tx_byte>
	
	// UDP PORT LISTEN
	uint8_t udp_port[2];
	udp_port[0] = udp_port_n >> 8;
     528:	ea 82       	std	Y+2, r14	; 0x02
	udp_port[1] = udp_port_n & 0x00FF;
     52a:	db 82       	std	Y+3, r13	; 0x03
	
	if(VERBOSE){printf("SnPORT0: 0x%x@0x%x ", udp_port[0], ((Sn_PORT(socket_n))));}
     52c:	c8 01       	movw	r24, r16
     52e:	9c 5f       	subi	r25, 0xFC	; 252
     530:	9f 93       	push	r25
     532:	8f 93       	push	r24
     534:	1f 92       	push	r1
     536:	ef 92       	push	r14
     538:	83 ea       	ldi	r24, 0xA3	; 163
     53a:	93 e0       	ldi	r25, 0x03	; 3
     53c:	9f 93       	push	r25
     53e:	8f 93       	push	r24
     540:	fe d2       	rcall	.+1532   	; 0xb3e <printf>
	SPI_w5500_tx_byte((Sn_PORT(socket_n)+_W5500_SPI_WRITE_),&udp_port[0],sizeof(udp_port[0]));
     542:	b8 01       	movw	r22, r16
     544:	6c 5f       	subi	r22, 0xFC	; 252
     546:	7b 4f       	sbci	r23, 0xFB	; 251
     548:	07 2e       	mov	r0, r23
     54a:	00 0c       	add	r0, r0
     54c:	88 0b       	sbc	r24, r24
     54e:	99 0b       	sbc	r25, r25
     550:	21 e0       	ldi	r18, 0x01	; 1
     552:	ae 01       	movw	r20, r28
     554:	4e 5f       	subi	r20, 0xFE	; 254
     556:	5f 4f       	sbci	r21, 0xFF	; 255
     558:	55 de       	rcall	.-854    	; 0x204 <SPI_w5500_tx_byte>
	if(VERBOSE){printf("SnPORT1: 0x%x@0x%x ", udp_port[1], ((Sn_PORT(socket_n))+1));}
     55a:	c8 01       	movw	r24, r16
     55c:	8f 5f       	subi	r24, 0xFF	; 255
     55e:	9b 4f       	sbci	r25, 0xFB	; 251
     560:	9f 93       	push	r25
     562:	8f 93       	push	r24
     564:	8b 81       	ldd	r24, Y+3	; 0x03
     566:	1f 92       	push	r1
     568:	8f 93       	push	r24
     56a:	87 eb       	ldi	r24, 0xB7	; 183
     56c:	93 e0       	ldi	r25, 0x03	; 3
     56e:	9f 93       	push	r25
     570:	8f 93       	push	r24
     572:	e5 d2       	rcall	.+1482   	; 0xb3e <printf>
	SPI_w5500_tx_byte((Sn_PORT(socket_n)+_W5500_SPI_WRITE_)+0x100,&udp_port[1],sizeof(udp_port[1]));
     574:	0f b6       	in	r0, 0x3f	; 63
     576:	f8 94       	cli
     578:	de bf       	out	0x3e, r29	; 62
     57a:	0f be       	out	0x3f, r0	; 63
     57c:	cd bf       	out	0x3d, r28	; 61
     57e:	b8 01       	movw	r22, r16
     580:	6c 5f       	subi	r22, 0xFC	; 252
     582:	7a 4f       	sbci	r23, 0xFA	; 250
     584:	07 2e       	mov	r0, r23
     586:	00 0c       	add	r0, r0
     588:	88 0b       	sbc	r24, r24
     58a:	99 0b       	sbc	r25, r25
     58c:	21 e0       	ldi	r18, 0x01	; 1
     58e:	ae 01       	movw	r20, r28
     590:	4d 5f       	subi	r20, 0xFD	; 253
     592:	5f 4f       	sbci	r21, 0xFF	; 255
     594:	37 de       	rcall	.-914    	; 0x204 <SPI_w5500_tx_byte>
	
	// OPEN SOCKET
	data = Sn_CR_OPEN;
     596:	81 e0       	ldi	r24, 0x01	; 1
	if(VERBOSE){printf("SnCR: 0x%x@0x%x ", Sn_CR_OPEN,(Sn_CR(socket_n)));}
     598:	89 83       	std	Y+1, r24	; 0x01
     59a:	98 01       	movw	r18, r16
     59c:	33 95       	inc	r19
     59e:	3f 93       	push	r19
     5a0:	2f 93       	push	r18
     5a2:	1f 92       	push	r1
     5a4:	8f 93       	push	r24
     5a6:	8b ec       	ldi	r24, 0xCB	; 203
     5a8:	93 e0       	ldi	r25, 0x03	; 3
     5aa:	9f 93       	push	r25
     5ac:	8f 93       	push	r24
	SPI_w5500_tx_byte((Sn_CR(socket_n)+_W5500_SPI_WRITE_),&data,sizeof(data));
     5ae:	c7 d2       	rcall	.+1422   	; 0xb3e <printf>
     5b0:	b8 01       	movw	r22, r16
     5b2:	6c 5f       	subi	r22, 0xFC	; 252
     5b4:	7e 4f       	sbci	r23, 0xFE	; 254
     5b6:	07 2e       	mov	r0, r23
     5b8:	00 0c       	add	r0, r0
     5ba:	88 0b       	sbc	r24, r24
     5bc:	99 0b       	sbc	r25, r25
     5be:	21 e0       	ldi	r18, 0x01	; 1
     5c0:	ae 01       	movw	r20, r28
     5c2:	4f 5f       	subi	r20, 0xFF	; 255
     5c4:	5f 4f       	sbci	r21, 0xFF	; 255
	
	// CHECK SOCKET STATUS
	if(VERBOSE){
		uint8_t socket_status = SPI_w5500_rx_byte(Sn_SR(socket_n));
     5c6:	1e de       	rcall	.-964    	; 0x204 <SPI_w5500_tx_byte>
     5c8:	b8 01       	movw	r22, r16
     5ca:	7d 5f       	subi	r23, 0xFD	; 253
     5cc:	07 2e       	mov	r0, r23
     5ce:	00 0c       	add	r0, r0
     5d0:	88 0b       	sbc	r24, r24
     5d2:	99 0b       	sbc	r25, r25
		printf("Sn_SR: %x@0x%x \n",socket_status,Sn_SR(0));
     5d4:	6d de       	rcall	.-806    	; 0x2b0 <SPI_w5500_rx_byte>
     5d6:	93 e0       	ldi	r25, 0x03	; 3
     5d8:	9f 93       	push	r25
     5da:	98 e0       	ldi	r25, 0x08	; 8
     5dc:	9f 93       	push	r25
     5de:	1f 92       	push	r1
     5e0:	8f 93       	push	r24
     5e2:	8c ed       	ldi	r24, 0xDC	; 220
     5e4:	93 e0       	ldi	r25, 0x03	; 3
     5e6:	9f 93       	push	r25
     5e8:	8f 93       	push	r24
     5ea:	a9 d2       	rcall	.+1362   	; 0xb3e <printf>
	}
}
     5ec:	0f b6       	in	r0, 0x3f	; 63
     5ee:	f8 94       	cli
     5f0:	de bf       	out	0x3e, r29	; 62
     5f2:	0f be       	out	0x3f, r0	; 63
     5f4:	cd bf       	out	0x3d, r28	; 61
     5f6:	0f 90       	pop	r0
     5f8:	0f 90       	pop	r0
     5fa:	0f 90       	pop	r0
     5fc:	df 91       	pop	r29
     5fe:	cf 91       	pop	r28
     600:	1f 91       	pop	r17
     602:	0f 91       	pop	r16
     604:	ff 90       	pop	r15
     606:	ef 90       	pop	r14
     608:	df 90       	pop	r13
     60a:	08 95       	ret

0000060c <w5500_udp_status>:

void w5500_udp_status(uint8_t socket_n){
     60c:	0f 93       	push	r16
     60e:	1f 93       	push	r17
     610:	cf 93       	push	r28
     612:	df 93       	push	r29
     614:	c8 2f       	mov	r28, r24
	
	if(VERBOSE){printf("\r\n------- UDP STATUS ----------\r\n");}
     616:	8d ee       	ldi	r24, 0xED	; 237
     618:	93 e0       	ldi	r25, 0x03	; 3
     61a:	a4 d2       	rcall	.+1352   	; 0xb64 <puts>
	uint8_t socket_status;
	
	if(VERBOSE){
		socket_status = SPI_w5500_rx_byte(Sn_SR(socket_n));
     61c:	d0 e0       	ldi	r29, 0x00	; 0
     61e:	cc 0f       	add	r28, r28
     620:	dd 1f       	adc	r29, r29
     622:	cc 0f       	add	r28, r28
     624:	dd 1f       	adc	r29, r29
     626:	21 96       	adiw	r28, 0x01	; 1
     628:	cc 0f       	add	r28, r28
     62a:	dd 1f       	adc	r29, r29
     62c:	cc 0f       	add	r28, r28
     62e:	dd 1f       	adc	r29, r29
     630:	cc 0f       	add	r28, r28
     632:	dd 1f       	adc	r29, r29
     634:	be 01       	movw	r22, r28
     636:	7d 5f       	subi	r23, 0xFD	; 253
     638:	07 2e       	mov	r0, r23
     63a:	00 0c       	add	r0, r0
     63c:	88 0b       	sbc	r24, r24
     63e:	99 0b       	sbc	r25, r25
     640:	37 de       	rcall	.-914    	; 0x2b0 <SPI_w5500_rx_byte>
		printf("Sn_SR: %x@0x%x \n",socket_status,Sn_SR(0));
     642:	93 e0       	ldi	r25, 0x03	; 3
     644:	9f 93       	push	r25
     646:	98 e0       	ldi	r25, 0x08	; 8
     648:	9f 93       	push	r25
     64a:	1f 92       	push	r1
     64c:	8f 93       	push	r24
     64e:	8c ed       	ldi	r24, 0xDC	; 220
     650:	93 e0       	ldi	r25, 0x03	; 3
     652:	9f 93       	push	r25
     654:	8f 93       	push	r24
     656:	73 d2       	rcall	.+1254   	; 0xb3e <printf>
	}
	
	if(VERBOSE){
		socket_status = SPI_w5500_rx_byte(Sn_PORT(socket_n));
     658:	8e 01       	movw	r16, r28
     65a:	1c 5f       	subi	r17, 0xFC	; 252
     65c:	b8 01       	movw	r22, r16
     65e:	01 2e       	mov	r0, r17
     660:	00 0c       	add	r0, r0
     662:	88 0b       	sbc	r24, r24
     664:	99 0b       	sbc	r25, r25
     666:	24 de       	rcall	.-952    	; 0x2b0 <SPI_w5500_rx_byte>
		printf("Sn_PORT0: %x@0x%x \n",socket_status,Sn_PORT(socket_n));
     668:	1f 93       	push	r17
     66a:	0f 93       	push	r16
     66c:	1f 92       	push	r1
     66e:	8f 93       	push	r24
     670:	8e e0       	ldi	r24, 0x0E	; 14
     672:	94 e0       	ldi	r25, 0x04	; 4
     674:	9f 93       	push	r25
     676:	8f 93       	push	r24
     678:	62 d2       	rcall	.+1220   	; 0xb3e <printf>
		socket_status = SPI_w5500_rx_byte(Sn_PORT(socket_n)+0x100);
     67a:	db 5f       	subi	r29, 0xFB	; 251
     67c:	be 01       	movw	r22, r28
     67e:	0d 2e       	mov	r0, r29
     680:	00 0c       	add	r0, r0
     682:	88 0b       	sbc	r24, r24
     684:	99 0b       	sbc	r25, r25
     686:	14 de       	rcall	.-984    	; 0x2b0 <SPI_w5500_rx_byte>
		printf("Sn_PORT1: %x@0x%x \n",socket_status,Sn_PORT(socket_n)+0x100);
     688:	df 93       	push	r29
     68a:	cf 93       	push	r28
     68c:	1f 92       	push	r1
     68e:	8f 93       	push	r24
     690:	82 e2       	ldi	r24, 0x22	; 34
     692:	94 e0       	ldi	r25, 0x04	; 4
     694:	9f 93       	push	r25
     696:	8f 93       	push	r24
     698:	52 d2       	rcall	.+1188   	; 0xb3e <printf>
	}
}
     69a:	8d b7       	in	r24, 0x3d	; 61
     69c:	9e b7       	in	r25, 0x3e	; 62
     69e:	42 96       	adiw	r24, 0x12	; 18
     6a0:	0f b6       	in	r0, 0x3f	; 63
     6a2:	f8 94       	cli
     6a4:	9e bf       	out	0x3e, r25	; 62
     6a6:	0f be       	out	0x3f, r0	; 63
     6a8:	8d bf       	out	0x3d, r24	; 61
     6aa:	df 91       	pop	r29
     6ac:	cf 91       	pop	r28
     6ae:	1f 91       	pop	r17
     6b0:	0f 91       	pop	r16
     6b2:	08 95       	ret

000006b4 <w5500_fetch_data>:


void w5500_fetch_data(uint8_t socket_n){
     6b4:	2f 92       	push	r2
     6b6:	3f 92       	push	r3
     6b8:	4f 92       	push	r4
     6ba:	5f 92       	push	r5
     6bc:	6f 92       	push	r6
     6be:	7f 92       	push	r7
     6c0:	8f 92       	push	r8
     6c2:	9f 92       	push	r9
     6c4:	af 92       	push	r10
     6c6:	bf 92       	push	r11
     6c8:	cf 92       	push	r12
     6ca:	df 92       	push	r13
     6cc:	ef 92       	push	r14
     6ce:	ff 92       	push	r15
     6d0:	0f 93       	push	r16
     6d2:	1f 93       	push	r17
     6d4:	cf 93       	push	r28
     6d6:	df 93       	push	r29
     6d8:	00 d0       	rcall	.+0      	; 0x6da <w5500_fetch_data+0x26>
     6da:	cd b7       	in	r28, 0x3d	; 61
     6dc:	de b7       	in	r29, 0x3e	; 62
     6de:	18 2f       	mov	r17, r24
	if(VERBOSE){printf("\r\n---------- FETCH REGISTER DATA ----------\r\n");}
     6e0:	86 e3       	ldi	r24, 0x36	; 54
     6e2:	94 e0       	ldi	r25, 0x04	; 4
     6e4:	3f d2       	rcall	.+1150   	; 0xb64 <puts>
	if(VERBOSE){printf("Socket #%u\n\r", socket_n);}
     6e6:	c1 2e       	mov	r12, r17
     6e8:	d1 2c       	mov	r13, r1
     6ea:	1f 92       	push	r1
     6ec:	1f 93       	push	r17
     6ee:	83 e6       	ldi	r24, 0x63	; 99
     6f0:	94 e0       	ldi	r25, 0x04	; 4
     6f2:	9f 93       	push	r25
     6f4:	8f 93       	push	r24
     6f6:	23 d2       	rcall	.+1094   	; 0xb3e <printf>
	// Get Offset Addr
	uint16_t src_ptr;
	uint16_t rcv_size;
	uint32_t addr;
	
	src_ptr = ((SPI_w5500_rx_byte(Sn_RX_RD(socket_n)) << 8) + SPI_w5500_rx_byte(Sn_RX_RD(socket_n) + 0x100));
     6f8:	cc 0c       	add	r12, r12
     6fa:	dd 1c       	adc	r13, r13
     6fc:	cc 0c       	add	r12, r12
     6fe:	dd 1c       	adc	r13, r13
     700:	56 01       	movw	r10, r12
     702:	2f ef       	ldi	r18, 0xFF	; 255
     704:	a2 1a       	sub	r10, r18
     706:	b2 0a       	sbc	r11, r18
     708:	aa 0c       	add	r10, r10
     70a:	bb 1c       	adc	r11, r11
     70c:	aa 0c       	add	r10, r10
     70e:	bb 1c       	adc	r11, r11
     710:	aa 0c       	add	r10, r10
     712:	bb 1c       	adc	r11, r11
     714:	15 01       	movw	r2, r10
     716:	38 ed       	ldi	r19, 0xD8	; 216
     718:	33 1a       	sub	r3, r19
     71a:	b1 01       	movw	r22, r2
     71c:	03 2c       	mov	r0, r3
     71e:	00 0c       	add	r0, r0
     720:	88 0b       	sbc	r24, r24
     722:	99 0b       	sbc	r25, r25
     724:	c5 dd       	rcall	.-1142   	; 0x2b0 <SPI_w5500_rx_byte>
     726:	88 2e       	mov	r8, r24
     728:	c5 01       	movw	r24, r10
     72a:	97 5d       	subi	r25, 0xD7	; 215
     72c:	9b 83       	std	Y+3, r25	; 0x03
     72e:	8a 83       	std	Y+2, r24	; 0x02
     730:	bc 01       	movw	r22, r24
     732:	99 0f       	add	r25, r25
     734:	88 0b       	sbc	r24, r24
     736:	99 0b       	sbc	r25, r25
     738:	bb dd       	rcall	.-1162   	; 0x2b0 <SPI_w5500_rx_byte>
     73a:	91 2c       	mov	r9, r1
     73c:	98 2c       	mov	r9, r8
     73e:	88 24       	eor	r8, r8
     740:	88 0e       	add	r8, r24
     742:	91 1c       	adc	r9, r1

	if(VERBOSE){printf("Sn_RX_RD: 0x%x@0x%x\n\r", src_ptr, Sn_RX_RD(socket_n));}
     744:	3f 92       	push	r3
     746:	2f 92       	push	r2
     748:	9f 92       	push	r9
     74a:	8f 92       	push	r8
     74c:	80 e7       	ldi	r24, 0x70	; 112
     74e:	94 e0       	ldi	r25, 0x04	; 4
     750:	9f 93       	push	r25
     752:	8f 93       	push	r24
     754:	f4 d1       	rcall	.+1000   	; 0xb3e <printf>
		
	rcv_size = (SPI_w5500_rx_byte(Sn_RX_RSR(socket_n)) << 8) + SPI_w5500_rx_byte(Sn_RX_RSR(socket_n)+0x100);
     756:	85 01       	movw	r16, r10
     758:	1a 5d       	subi	r17, 0xDA	; 218
     75a:	b8 01       	movw	r22, r16
     75c:	01 2e       	mov	r0, r17
     75e:	00 0c       	add	r0, r0
     760:	88 0b       	sbc	r24, r24
     762:	99 0b       	sbc	r25, r25
     764:	a5 dd       	rcall	.-1206   	; 0x2b0 <SPI_w5500_rx_byte>
     766:	e8 2e       	mov	r14, r24
     768:	b5 01       	movw	r22, r10
     76a:	79 5d       	subi	r23, 0xD9	; 217
     76c:	07 2e       	mov	r0, r23
     76e:	00 0c       	add	r0, r0
     770:	88 0b       	sbc	r24, r24
     772:	99 0b       	sbc	r25, r25
     774:	9d dd       	rcall	.-1222   	; 0x2b0 <SPI_w5500_rx_byte>
     776:	f1 2c       	mov	r15, r1
     778:	fe 2c       	mov	r15, r14
     77a:	ee 24       	eor	r14, r14
     77c:	e8 0e       	add	r14, r24
     77e:	f1 1c       	adc	r15, r1
	if(VERBOSE){printf("Sn_RX_RSR: 0x%x@0x%x\n\r", rcv_size, (Sn_RX_RSR(socket_n)));}
     780:	1f 93       	push	r17
     782:	0f 93       	push	r16
     784:	ff 92       	push	r15
     786:	ef 92       	push	r14
     788:	86 e8       	ldi	r24, 0x86	; 134
     78a:	94 e0       	ldi	r25, 0x04	; 4
     78c:	9f 93       	push	r25
     78e:	8f 93       	push	r24
     790:	d6 d1       	rcall	.+940    	; 0xb3e <printf>
	// HEADER READING
	uint8_t header[UDP_HEADER_SIZE];
	/* copy header_size bytes of get_start_address to header_address */
	
	addr = src_ptr;
	addr = (addr << 8) + (WIZCHIP_RXBUF_BLOCK(socket_n) << 3);
     792:	24 01       	movw	r4, r8
     794:	61 2c       	mov	r6, r1
     796:	71 2c       	mov	r7, r1
     798:	76 2c       	mov	r7, r6
     79a:	65 2c       	mov	r6, r5
     79c:	54 2c       	mov	r5, r4
     79e:	44 24       	eor	r4, r4
     7a0:	c6 01       	movw	r24, r12
     7a2:	03 96       	adiw	r24, 0x03	; 3
     7a4:	88 0f       	add	r24, r24
     7a6:	99 1f       	adc	r25, r25
     7a8:	88 0f       	add	r24, r24
     7aa:	99 1f       	adc	r25, r25
     7ac:	88 0f       	add	r24, r24
     7ae:	99 1f       	adc	r25, r25
     7b0:	09 2e       	mov	r0, r25
     7b2:	00 0c       	add	r0, r0
     7b4:	aa 0b       	sbc	r26, r26
     7b6:	bb 0b       	sbc	r27, r27
     7b8:	48 0e       	add	r4, r24
     7ba:	59 1e       	adc	r5, r25
     7bc:	6a 1e       	adc	r6, r26
     7be:	7b 1e       	adc	r7, r27
	if(VERBOSE){printf("Header Add: 0x%08lx \n\r", addr);}
     7c0:	7f 92       	push	r7
     7c2:	6f 92       	push	r6
     7c4:	5f 92       	push	r5
     7c6:	4f 92       	push	r4
     7c8:	8d e9       	ldi	r24, 0x9D	; 157
     7ca:	94 e0       	ldi	r25, 0x04	; 4
     7cc:	9f 93       	push	r25
     7ce:	8f 93       	push	r24
     7d0:	b6 d1       	rcall	.+876    	; 0xb3e <printf>
		
	for(uint16_t i=0; i<rcv_size; i++){
     7d2:	0f b6       	in	r0, 0x3f	; 63
     7d4:	f8 94       	cli
     7d6:	de bf       	out	0x3e, r29	; 62
     7d8:	0f be       	out	0x3f, r0	; 63
     7da:	cd bf       	out	0x3d, r28	; 61
     7dc:	e1 14       	cp	r14, r1
     7de:	f1 04       	cpc	r15, r1
     7e0:	71 f1       	breq	.+92     	; 0x83e <w5500_fetch_data+0x18a>
     7e2:	00 e0       	ldi	r16, 0x00	; 0
     7e4:	10 e0       	ldi	r17, 0x00	; 0
			header[i] = SPI_w5500_rx_byte(addr);	
			if(DEBUG_ENABLE){printf("header: %u@0x%lx \n\r", header[i], addr);}
		}else if(i>=UDP_HEADER_SIZE){
			if(VERBOSE){
				if(i==UDP_HEADER_SIZE){printf("\n\r---------- START UDP MSG ----------\n\r");}
				printf("%x ", SPI_w5500_rx_byte(addr));
     7e6:	0f 2e       	mov	r0, r31
     7e8:	f8 e7       	ldi	r31, 0x78	; 120
     7ea:	cf 2e       	mov	r12, r31
     7ec:	f3 e0       	ldi	r31, 0x03	; 3
     7ee:	df 2e       	mov	r13, r31
	addr = (addr << 8) + (WIZCHIP_RXBUF_BLOCK(socket_n) << 3);
	if(VERBOSE){printf("Header Add: 0x%08lx \n\r", addr);}
		
	for(uint16_t i=0; i<rcv_size; i++){
		//header[i] = W5500_READ(src_ptr, header);
		if (i < UDP_HEADER_SIZE){
     7f0:	f0 2d       	mov	r31, r0
     7f2:	08 30       	cpi	r16, 0x08	; 8
     7f4:	11 05       	cpc	r17, r1
			header[i] = SPI_w5500_rx_byte(addr);	
     7f6:	20 f4       	brcc	.+8      	; 0x800 <w5500_fetch_data+0x14c>
     7f8:	c3 01       	movw	r24, r6
     7fa:	b2 01       	movw	r22, r4
     7fc:	59 dd       	rcall	.-1358   	; 0x2b0 <SPI_w5500_rx_byte>
			if(DEBUG_ENABLE){printf("header: %u@0x%lx \n\r", header[i], addr);}
		}else if(i>=UDP_HEADER_SIZE){
			if(VERBOSE){
				if(i==UDP_HEADER_SIZE){printf("\n\r---------- START UDP MSG ----------\n\r");}
     7fe:	16 c0       	rjmp	.+44     	; 0x82c <w5500_fetch_data+0x178>
     800:	08 30       	cpi	r16, 0x08	; 8
     802:	11 05       	cpc	r17, r1
     804:	39 f4       	brne	.+14     	; 0x814 <w5500_fetch_data+0x160>
     806:	84 eb       	ldi	r24, 0xB4	; 180
     808:	94 e0       	ldi	r25, 0x04	; 4
     80a:	9f 93       	push	r25
     80c:	8f 93       	push	r24
     80e:	97 d1       	rcall	.+814    	; 0xb3e <printf>
				printf("%x ", SPI_w5500_rx_byte(addr));
     810:	0f 90       	pop	r0
     812:	0f 90       	pop	r0
     814:	c3 01       	movw	r24, r6
     816:	b2 01       	movw	r22, r4
     818:	4b dd       	rcall	.-1386   	; 0x2b0 <SPI_w5500_rx_byte>
     81a:	1f 92       	push	r1
     81c:	8f 93       	push	r24
     81e:	df 92       	push	r13
     820:	cf 92       	push	r12
     822:	8d d1       	rcall	.+794    	; 0xb3e <printf>
     824:	0f 90       	pop	r0
     826:	0f 90       	pop	r0
     828:	0f 90       	pop	r0
     82a:	0f 90       	pop	r0
			}
		}
		addr+=0x100;
     82c:	3f ef       	ldi	r19, 0xFF	; 255
     82e:	53 1a       	sub	r5, r19
     830:	63 0a       	sbc	r6, r19
	
	addr = src_ptr;
	addr = (addr << 8) + (WIZCHIP_RXBUF_BLOCK(socket_n) << 3);
	if(VERBOSE){printf("Header Add: 0x%08lx \n\r", addr);}
		
	for(uint16_t i=0; i<rcv_size; i++){
     832:	73 0a       	sbc	r7, r19
     834:	0f 5f       	subi	r16, 0xFF	; 255
     836:	1f 4f       	sbci	r17, 0xFF	; 255
     838:	e0 16       	cp	r14, r16
     83a:	f1 06       	cpc	r15, r17
			}
		}
		addr+=0x100;
	}

	if(VERBOSE){printf("\n\r---------- END UDP MSG ----------\n\r");}
     83c:	d1 f6       	brne	.-76     	; 0x7f2 <w5500_fetch_data+0x13e>
     83e:	8c ed       	ldi	r24, 0xDC	; 220
     840:	94 e0       	ldi	r25, 0x04	; 4
     842:	9f 93       	push	r25
     844:	8f 93       	push	r24
     846:	7b d1       	rcall	.+758    	; 0xb3e <printf>
	
	src_ptr+=((rcv_size) & 0xFFFF);
     848:	e8 0c       	add	r14, r8
	
	// Set Sn_RX_RD to new pointer
	
	uint8_t data = src_ptr >> 8;
     84a:	f9 1c       	adc	r15, r9
	SPI_w5500_tx_byte((Sn_RX_RD(socket_n)) + _W5500_SPI_WRITE_, &data, sizeof(data));
     84c:	f9 82       	std	Y+1, r15	; 0x01
     84e:	b5 01       	movw	r22, r10
     850:	6c 5f       	subi	r22, 0xFC	; 252
     852:	77 4d       	sbci	r23, 0xD7	; 215
     854:	07 2e       	mov	r0, r23
     856:	00 0c       	add	r0, r0
     858:	88 0b       	sbc	r24, r24
     85a:	99 0b       	sbc	r25, r25
     85c:	21 e0       	ldi	r18, 0x01	; 1
     85e:	ae 01       	movw	r20, r28
     860:	4f 5f       	subi	r20, 0xFF	; 255
     862:	5f 4f       	sbci	r21, 0xFF	; 255
	if(VERBOSE){printf("Sn_RX_RD0: 0x%x@0x%x\n\r", data, (Sn_RX_RD(socket_n)));}
     864:	cf dc       	rcall	.-1634   	; 0x204 <SPI_w5500_tx_byte>
     866:	3f 92       	push	r3
     868:	2f 92       	push	r2
     86a:	89 81       	ldd	r24, Y+1	; 0x01
     86c:	1f 92       	push	r1
     86e:	8f 93       	push	r24
     870:	82 e0       	ldi	r24, 0x02	; 2
     872:	95 e0       	ldi	r25, 0x05	; 5
     874:	9f 93       	push	r25
     876:	8f 93       	push	r24

	data = src_ptr & 0xFF;
     878:	62 d1       	rcall	.+708    	; 0xb3e <printf>
	SPI_w5500_tx_byte(Sn_RX_RD(socket_n) + 0x100 + _W5500_SPI_WRITE_, &data, sizeof(data));
     87a:	e9 82       	std	Y+1, r14	; 0x01
     87c:	b5 01       	movw	r22, r10
     87e:	6c 5f       	subi	r22, 0xFC	; 252
     880:	76 4d       	sbci	r23, 0xD6	; 214
     882:	07 2e       	mov	r0, r23
     884:	00 0c       	add	r0, r0
     886:	88 0b       	sbc	r24, r24
     888:	99 0b       	sbc	r25, r25
     88a:	21 e0       	ldi	r18, 0x01	; 1
     88c:	ae 01       	movw	r20, r28
     88e:	4f 5f       	subi	r20, 0xFF	; 255
     890:	5f 4f       	sbci	r21, 0xFF	; 255
	if(VERBOSE){printf("Sn_RX_RD1: 0x%x@0x%x\n\r", data, (Sn_RX_RD(socket_n))+0x100);}
     892:	b8 dc       	rcall	.-1680   	; 0x204 <SPI_w5500_tx_byte>
     894:	8b 81       	ldd	r24, Y+3	; 0x03
     896:	8f 93       	push	r24
     898:	9a 81       	ldd	r25, Y+2	; 0x02
     89a:	9f 93       	push	r25
     89c:	89 81       	ldd	r24, Y+1	; 0x01
     89e:	1f 92       	push	r1
     8a0:	8f 93       	push	r24
     8a2:	89 e1       	ldi	r24, 0x19	; 25
     8a4:	95 e0       	ldi	r25, 0x05	; 5
     8a6:	9f 93       	push	r25
     8a8:	8f 93       	push	r24

	
	// SET RECV
	data = Sn_CR_RECV;
     8aa:	49 d1       	rcall	.+658    	; 0xb3e <printf>
	if(VERBOSE){printf("\r\nSn_CR to RECV\n\r");}
     8ac:	80 e4       	ldi	r24, 0x40	; 64
     8ae:	89 83       	std	Y+1, r24	; 0x01
     8b0:	80 e3       	ldi	r24, 0x30	; 48
     8b2:	95 e0       	ldi	r25, 0x05	; 5
     8b4:	9f 93       	push	r25
     8b6:	8f 93       	push	r24
	SPI_w5500_tx_byte(Sn_CR(socket_n) + _W5500_SPI_WRITE_, &data, (sizeof(data)));
     8b8:	42 d1       	rcall	.+644    	; 0xb3e <printf>
     8ba:	b5 01       	movw	r22, r10
     8bc:	6c 5f       	subi	r22, 0xFC	; 252
     8be:	7e 4f       	sbci	r23, 0xFE	; 254
     8c0:	07 2e       	mov	r0, r23
     8c2:	00 0c       	add	r0, r0
     8c4:	88 0b       	sbc	r24, r24
     8c6:	99 0b       	sbc	r25, r25
     8c8:	21 e0       	ldi	r18, 0x01	; 1
     8ca:	ae 01       	movw	r20, r28
     8cc:	4f 5f       	subi	r20, 0xFF	; 255
     8ce:	5f 4f       	sbci	r21, 0xFF	; 255
     8d0:	99 dc       	rcall	.-1742   	; 0x204 <SPI_w5500_tx_byte>
	
}
     8d2:	0f b6       	in	r0, 0x3f	; 63
     8d4:	f8 94       	cli
     8d6:	de bf       	out	0x3e, r29	; 62
     8d8:	0f be       	out	0x3f, r0	; 63
     8da:	cd bf       	out	0x3d, r28	; 61
     8dc:	0f 90       	pop	r0
     8de:	0f 90       	pop	r0
     8e0:	0f 90       	pop	r0
     8e2:	df 91       	pop	r29
     8e4:	cf 91       	pop	r28
     8e6:	1f 91       	pop	r17
     8e8:	0f 91       	pop	r16
     8ea:	ff 90       	pop	r15
     8ec:	ef 90       	pop	r14
     8ee:	df 90       	pop	r13
     8f0:	cf 90       	pop	r12
     8f2:	bf 90       	pop	r11
     8f4:	af 90       	pop	r10
     8f6:	9f 90       	pop	r9
     8f8:	8f 90       	pop	r8
     8fa:	7f 90       	pop	r7
     8fc:	6f 90       	pop	r6
     8fe:	5f 90       	pop	r5
     900:	4f 90       	pop	r4
     902:	3f 90       	pop	r3
     904:	2f 90       	pop	r2
     906:	08 95       	ret

00000908 <w5500_get_rx_rd>:
	
uint16_t w5500_get_rx_rd(uint8_t socket_n){
     908:	1f 93       	push	r17
     90a:	cf 93       	push	r28
     90c:	df 93       	push	r29
	return (SPI_w5500_rx_byte(Sn_RX_RD(socket_n)) << 8) + SPI_w5500_rx_byte(Sn_RX_RD(socket_n) + 0x100);
     90e:	24 e0       	ldi	r18, 0x04	; 4
     910:	82 9f       	mul	r24, r18
     912:	c0 01       	movw	r24, r0
     914:	11 24       	eor	r1, r1
     916:	ec 01       	movw	r28, r24
     918:	21 96       	adiw	r28, 0x01	; 1
     91a:	cc 0f       	add	r28, r28
     91c:	dd 1f       	adc	r29, r29
     91e:	cc 0f       	add	r28, r28
     920:	dd 1f       	adc	r29, r29
     922:	cc 0f       	add	r28, r28
     924:	dd 1f       	adc	r29, r29
     926:	be 01       	movw	r22, r28
     928:	78 5d       	subi	r23, 0xD8	; 216
     92a:	07 2e       	mov	r0, r23
     92c:	00 0c       	add	r0, r0
     92e:	88 0b       	sbc	r24, r24
     930:	99 0b       	sbc	r25, r25
     932:	be dc       	rcall	.-1668   	; 0x2b0 <SPI_w5500_rx_byte>
     934:	18 2f       	mov	r17, r24
     936:	be 01       	movw	r22, r28
     938:	77 5d       	subi	r23, 0xD7	; 215
     93a:	07 2e       	mov	r0, r23
     93c:	00 0c       	add	r0, r0
     93e:	88 0b       	sbc	r24, r24
     940:	99 0b       	sbc	r25, r25
     942:	b6 dc       	rcall	.-1684   	; 0x2b0 <SPI_w5500_rx_byte>
     944:	21 2f       	mov	r18, r17
     946:	30 e0       	ldi	r19, 0x00	; 0
     948:	32 2f       	mov	r19, r18
     94a:	22 27       	eor	r18, r18
}
     94c:	a9 01       	movw	r20, r18
     94e:	48 0f       	add	r20, r24
     950:	51 1d       	adc	r21, r1
     952:	ca 01       	movw	r24, r20
     954:	df 91       	pop	r29
     956:	cf 91       	pop	r28
     958:	1f 91       	pop	r17
     95a:	08 95       	ret

0000095c <w5500_get_msg_size>:

uint16_t w5500_get_msg_size(uint8_t socket_n){
     95c:	1f 93       	push	r17
     95e:	cf 93       	push	r28
     960:	df 93       	push	r29
	return (SPI_w5500_rx_byte(Sn_RX_RSR(socket_n)) << 8) + SPI_w5500_rx_byte(Sn_RX_RSR(socket_n)+0x100);
     962:	24 e0       	ldi	r18, 0x04	; 4
     964:	82 9f       	mul	r24, r18
     966:	c0 01       	movw	r24, r0
     968:	11 24       	eor	r1, r1
     96a:	ec 01       	movw	r28, r24
     96c:	21 96       	adiw	r28, 0x01	; 1
     96e:	cc 0f       	add	r28, r28
     970:	dd 1f       	adc	r29, r29
     972:	cc 0f       	add	r28, r28
     974:	dd 1f       	adc	r29, r29
     976:	cc 0f       	add	r28, r28
     978:	dd 1f       	adc	r29, r29
     97a:	be 01       	movw	r22, r28
     97c:	7a 5d       	subi	r23, 0xDA	; 218
     97e:	07 2e       	mov	r0, r23
     980:	00 0c       	add	r0, r0
     982:	88 0b       	sbc	r24, r24
     984:	99 0b       	sbc	r25, r25
     986:	94 dc       	rcall	.-1752   	; 0x2b0 <SPI_w5500_rx_byte>
     988:	18 2f       	mov	r17, r24
     98a:	be 01       	movw	r22, r28
     98c:	79 5d       	subi	r23, 0xD9	; 217
     98e:	07 2e       	mov	r0, r23
     990:	00 0c       	add	r0, r0
     992:	88 0b       	sbc	r24, r24
     994:	99 0b       	sbc	r25, r25
     996:	8c dc       	rcall	.-1768   	; 0x2b0 <SPI_w5500_rx_byte>
     998:	21 2f       	mov	r18, r17
     99a:	30 e0       	ldi	r19, 0x00	; 0
     99c:	32 2f       	mov	r19, r18
     99e:	22 27       	eor	r18, r18
     9a0:	a9 01       	movw	r20, r18
     9a2:	48 0f       	add	r20, r24
     9a4:	51 1d       	adc	r21, r1
     9a6:	ca 01       	movw	r24, r20
     9a8:	df 91       	pop	r29
     9aa:	cf 91       	pop	r28
     9ac:	1f 91       	pop	r17
     9ae:	08 95       	ret

000009b0 <main>:
	PORTB |= (1 << PB7);
}


int main(void)
{
     9b0:	cf 93       	push	r28
     9b2:	df 93       	push	r29
     9b4:	cd b7       	in	r28, 0x3d	; 61
     9b6:	de b7       	in	r29, 0x3e	; 62
     9b8:	67 97       	sbiw	r28, 0x17	; 23
     9ba:	0f b6       	in	r0, 0x3f	; 63
     9bc:	f8 94       	cli
     9be:	de bf       	out	0x3e, r29	; 62
     9c0:	0f be       	out	0x3f, r0	; 63
     9c2:	cd bf       	out	0x3d, r28	; 61
    /* Replace with your application code */
	
	// setup our stdio stream
	stdout = &mystdout;
     9c4:	80 e0       	ldi	r24, 0x00	; 0
     9c6:	92 e0       	ldi	r25, 0x02	; 2
     9c8:	90 93 a7 05 	sts	0x05A7, r25	; 0x8005a7 <__iob+0x3>
     9cc:	80 93 a6 05 	sts	0x05A6, r24	; 0x8005a6 <__iob+0x2>
	
	// fire up the usart
	USART_init ( MYUBRR );
     9d0:	89 e1       	ldi	r24, 0x19	; 25
     9d2:	90 e0       	ldi	r25, 0x00	; 0
     9d4:	98 d0       	rcall	.+304    	; 0xb06 <USART_init>
	PCMSK2 = 0x01;
	PCICR = 0x04;// Enable PCICR
	EICRB |= (0 << ISC40) | (1 << ISC41); // EICRB
	*/
	
	printf(">> Free RAM is: %d bytes\r\n", freeRam());
     9d6:	d3 db       	rcall	.-2138   	; 0x17e <freeRam>
     9d8:	9f 93       	push	r25
     9da:	8f 93       	push	r24
     9dc:	82 e4       	ldi	r24, 0x42	; 66
     9de:	95 e0       	ldi	r25, 0x05	; 5
     9e0:	9f 93       	push	r25
     9e2:	8f 93       	push	r24
     9e4:	ac d0       	rcall	.+344    	; 0xb3e <printf>
     9e6:	8b ee       	ldi	r24, 0xEB	; 235
	printf(">> %s", str_prog_name);//
     9e8:	90 e0       	ldi	r25, 0x00	; 0
     9ea:	9f 93       	push	r25
     9ec:	8f 93       	push	r24
     9ee:	8d e5       	ldi	r24, 0x5D	; 93
     9f0:	95 e0       	ldi	r25, 0x05	; 5
     9f2:	9f 93       	push	r25
     9f4:	8f 93       	push	r24
     9f6:	a3 d0       	rcall	.+326    	; 0xb3e <printf>
     9f8:	81 e3       	ldi	r24, 0x31	; 49
	printf(">> Compiled at: %s %s\r\n", compile_time, compile_date);//
     9fa:	91 e0       	ldi	r25, 0x01	; 1
     9fc:	9f 93       	push	r25
     9fe:	8f 93       	push	r24
     a00:	88 e2       	ldi	r24, 0x28	; 40
     a02:	91 e0       	ldi	r25, 0x01	; 1
     a04:	9f 93       	push	r25
     a06:	8f 93       	push	r24
     a08:	83 e6       	ldi	r24, 0x63	; 99
     a0a:	95 e0       	ldi	r25, 0x05	; 5
     a0c:	9f 93       	push	r25
     a0e:	8f 93       	push	r24
     a10:	96 d0       	rcall	.+300    	; 0xb3e <printf>
     a12:	1f 92       	push	r1
	printf(">> MCU is: %s; CLK is: %luHz\r\n", str_mcu, F_CPU);// MCU Name && FREQ
     a14:	84 ef       	ldi	r24, 0xF4	; 244
     a16:	8f 93       	push	r24
     a18:	84 e2       	ldi	r24, 0x24	; 36
     a1a:	8f 93       	push	r24
     a1c:	1f 92       	push	r1
     a1e:	84 ee       	ldi	r24, 0xE4	; 228
     a20:	90 e0       	ldi	r25, 0x00	; 0
     a22:	9f 93       	push	r25
     a24:	8f 93       	push	r24
     a26:	8b e7       	ldi	r24, 0x7B	; 123
     a28:	95 e0       	ldi	r25, 0x05	; 5
     a2a:	9f 93       	push	r25
     a2c:	8f 93       	push	r24
     a2e:	87 d0       	rcall	.+270    	; 0xb3e <printf>
	
	SPI_MasterInit();
     a30:	55 d0       	rcall	.+170    	; 0xadc <SPI_MasterInit>
     a32:	78 94       	sei
	
	// Enable All Interruptions
	sei();
     a34:	87 e1       	ldi	r24, 0x17	; 23
	
	wiz_NetInfo wiz_net_info = {.mac  = {0x00, 0x08, 0xdc, 0xab, 0xcd, 0xef}, // Mac address
     a36:	ee e0       	ldi	r30, 0x0E	; 14
     a38:	f2 e0       	ldi	r31, 0x02	; 2
     a3a:	de 01       	movw	r26, r28
     a3c:	11 96       	adiw	r26, 0x01	; 1
     a3e:	01 90       	ld	r0, Z+
     a40:	0d 92       	st	X+, r0
     a42:	8a 95       	dec	r24
     a44:	e1 f7       	brne	.-8      	; 0xa3e <main+0x8e>
     a46:	8d b7       	in	r24, 0x3d	; 61
	.sn   = {255, 255, 255, 0},         // Subnet mask
	.dns =  {8,8,8,8},			  // DNS address (google dns)
	.gw   = {192, 168, 0, 1}, // Gateway address
	.dhcp = NETINFO_STATIC};    //Static IP configuration
	
	w5500_set_nic(wiz_net_info);
     a48:	9e b7       	in	r25, 0x3e	; 62
     a4a:	47 97       	sbiw	r24, 0x17	; 23
     a4c:	0f b6       	in	r0, 0x3f	; 63
     a4e:	f8 94       	cli
     a50:	9e bf       	out	0x3e, r25	; 62
     a52:	0f be       	out	0x3f, r0	; 63
     a54:	8d bf       	out	0x3d, r24	; 61
     a56:	ad b7       	in	r26, 0x3d	; 61
     a58:	be b7       	in	r27, 0x3e	; 62
     a5a:	11 96       	adiw	r26, 0x01	; 1
     a5c:	87 e1       	ldi	r24, 0x17	; 23
     a5e:	fe 01       	movw	r30, r28
     a60:	31 96       	adiw	r30, 0x01	; 1
     a62:	01 90       	ld	r0, Z+
     a64:	0d 92       	st	X+, r0
     a66:	8a 95       	dec	r24
     a68:	e1 f7       	brne	.-8      	; 0xa62 <main+0xb2>
     a6a:	37 dc       	rcall	.-1938   	; 0x2da <w5500_set_nic>
     a6c:	8d b7       	in	r24, 0x3d	; 61
	
	w5500_get_nic(wiz_net_info);
     a6e:	9e b7       	in	r25, 0x3e	; 62
     a70:	8d 96       	adiw	r24, 0x2d	; 45
     a72:	0f b6       	in	r0, 0x3f	; 63
     a74:	f8 94       	cli
     a76:	de bf       	out	0x3e, r29	; 62
     a78:	0f be       	out	0x3f, r0	; 63
     a7a:	cd bf       	out	0x3d, r28	; 61
     a7c:	47 97       	sbiw	r24, 0x17	; 23
     a7e:	0f b6       	in	r0, 0x3f	; 63
     a80:	f8 94       	cli
     a82:	9e bf       	out	0x3e, r25	; 62
     a84:	0f be       	out	0x3f, r0	; 63
     a86:	8d bf       	out	0x3d, r24	; 61
     a88:	ad b7       	in	r26, 0x3d	; 61
     a8a:	be b7       	in	r27, 0x3e	; 62
     a8c:	11 96       	adiw	r26, 0x01	; 1
     a8e:	87 e1       	ldi	r24, 0x17	; 23
     a90:	fe 01       	movw	r30, r28
     a92:	31 96       	adiw	r30, 0x01	; 1
     a94:	01 90       	ld	r0, Z+
     a96:	0d 92       	st	X+, r0
     a98:	8a 95       	dec	r24
     a9a:	e1 f7       	brne	.-8      	; 0xa94 <main+0xe4>
	
	// UDP Initialization
	uint8_t socket_n = 0;
	uint16_t udp_port_n = 4000;
	
	w5500_udp_init(socket_n, udp_port_n);
     a9c:	94 dc       	rcall	.-1752   	; 0x3c6 <w5500_get_nic>
     a9e:	60 ea       	ldi	r22, 0xA0	; 160
     aa0:	7f e0       	ldi	r23, 0x0F	; 15
     aa2:	80 e0       	ldi	r24, 0x00	; 0
     aa4:	d1 dc       	rcall	.-1630   	; 0x448 <w5500_udp_init>
	w5500_udp_status(socket_n);
     aa6:	80 e0       	ldi	r24, 0x00	; 0
     aa8:	b1 dd       	rcall	.-1182   	; 0x60c <w5500_udp_status>
     aaa:	0f b6       	in	r0, 0x3f	; 63
     aac:	f8 94       	cli
     aae:	de bf       	out	0x3e, r29	; 62
     ab0:	0f be       	out	0x3f, r0	; 63
		// Check if data received
		if (w5500_get_msg_size(socket_n) > 0x0000){
			// Fetch data
			if(DEBUG_ENABLE){printf("--------- PACKET RECEIVED ---------\n\r");}
			w5500_fetch_data(socket_n);
			printf("0x%x\n", w5500_get_rx_rd(socket_n));
     ab2:	cd bf       	out	0x3d, r28	; 61
     ab4:	0a e9       	ldi	r16, 0x9A	; 154
	w5500_udp_status(socket_n);

    while (1)
    {
		// Check if data received
		if (w5500_get_msg_size(socket_n) > 0x0000){
     ab6:	15 e0       	ldi	r17, 0x05	; 5
     ab8:	80 e0       	ldi	r24, 0x00	; 0
     aba:	50 df       	rcall	.-352    	; 0x95c <w5500_get_msg_size>
     abc:	89 2b       	or	r24, r25
			// Fetch data
			if(DEBUG_ENABLE){printf("--------- PACKET RECEIVED ---------\n\r");}
			w5500_fetch_data(socket_n);
     abe:	e1 f3       	breq	.-8      	; 0xab8 <main+0x108>
     ac0:	80 e0       	ldi	r24, 0x00	; 0
     ac2:	f8 dd       	rcall	.-1040   	; 0x6b4 <w5500_fetch_data>
			printf("0x%x\n", w5500_get_rx_rd(socket_n));
     ac4:	80 e0       	ldi	r24, 0x00	; 0
     ac6:	20 df       	rcall	.-448    	; 0x908 <w5500_get_rx_rd>
     ac8:	9f 93       	push	r25
     aca:	8f 93       	push	r24
     acc:	1f 93       	push	r17
     ace:	0f 93       	push	r16
     ad0:	36 d0       	rcall	.+108    	; 0xb3e <printf>
     ad2:	0f 90       	pop	r0
     ad4:	0f 90       	pop	r0
     ad6:	0f 90       	pop	r0
     ad8:	0f 90       	pop	r0
     ada:	ee cf       	rjmp	.-36     	; 0xab8 <main+0x108>

00000adc <SPI_MasterInit>:
#include "spi.h"

void SPI_MasterInit(void)
{
	/* Set MOSI, SCK output, SS output */
	DDR_SPI = (1<<DD_MOSI)|(1<<DD_SCK)|(1<<DD_CS);
     adc:	87 e0       	ldi	r24, 0x07	; 7
     ade:	84 b9       	out	0x04, r24	; 4
	/* Enable SPI, Master, set clock rate fck/16 */
	SPCR = (1<<SPE)|(1<<MSTR)|(1<<SPR0);
     ae0:	81 e5       	ldi	r24, 0x51	; 81
     ae2:	8c bd       	out	0x2c, r24	; 44
     ae4:	08 95       	ret

00000ae6 <SPI_MasterTransmit>:
}

void SPI_MasterTransmit(uint8_t data)
{
	/* Start transmission */
	SPDR = data;
     ae6:	8e bd       	out	0x2e, r24	; 46
	/* Wait for transmission complete */
	while(!(SPSR & (1<<SPIF)));
     ae8:	0d b4       	in	r0, 0x2d	; 45
     aea:	07 fe       	sbrs	r0, 7
     aec:	fd cf       	rjmp	.-6      	; 0xae8 <SPI_MasterTransmit+0x2>
}
     aee:	08 95       	ret

00000af0 <SPI_MasterReceive>:

uint8_t SPI_MasterReceive(void)
{
	// transmit dummy byte
	SPDR = 0xFF;
     af0:	8f ef       	ldi	r24, 0xFF	; 255
     af2:	8e bd       	out	0x2e, r24	; 46
	
	// Wait for reception complete
	while(!(SPSR & (1 << SPIF)));
     af4:	0d b4       	in	r0, 0x2d	; 45
     af6:	07 fe       	sbrs	r0, 7
     af8:	fd cf       	rjmp	.-6      	; 0xaf4 <SPI_MasterReceive+0x4>

	// return Data Register
	return SPDR;
     afa:	8e b5       	in	r24, 0x2e	; 46
}
     afc:	08 95       	ret

00000afe <SPI_EnableTransmission>:

void SPI_EnableTransmission(void){
	SPI_PORT &= ~(1<<PB0);
     afe:	28 98       	cbi	0x05, 0	; 5
     b00:	08 95       	ret

00000b02 <SPI_DisableTransmission>:
}

void SPI_DisableTransmission(void){
	SPI_PORT |= (1<<PB0);
     b02:	28 9a       	sbi	0x05, 0	; 5
     b04:	08 95       	ret

00000b06 <USART_init>:
	// loop through entire string
	while (*s) {
		USART_Transmit(*s);
		s++;
	}
}
     b06:	90 93 c5 00 	sts	0x00C5, r25	; 0x8000c5 <__TEXT_REGION_LENGTH__+0x7000c5>
     b0a:	80 93 c4 00 	sts	0x00C4, r24	; 0x8000c4 <__TEXT_REGION_LENGTH__+0x7000c4>
     b0e:	88 e1       	ldi	r24, 0x18	; 24
     b10:	80 93 c1 00 	sts	0x00C1, r24	; 0x8000c1 <__TEXT_REGION_LENGTH__+0x7000c1>
     b14:	08 95       	ret

00000b16 <USART_Transmit>:
     b16:	e0 ec       	ldi	r30, 0xC0	; 192
     b18:	f0 e0       	ldi	r31, 0x00	; 0
     b1a:	90 81       	ld	r25, Z
     b1c:	95 ff       	sbrs	r25, 5
     b1e:	fd cf       	rjmp	.-6      	; 0xb1a <USART_Transmit+0x4>
     b20:	80 93 c6 00 	sts	0x00C6, r24	; 0x8000c6 <__TEXT_REGION_LENGTH__+0x7000c6>
     b24:	08 95       	ret

00000b26 <USART_putchar_printf>:

// this function is called by printf as a stream handler
int USART_putchar_printf(char var, FILE *stream) {
     b26:	cf 93       	push	r28
     b28:	c8 2f       	mov	r28, r24
	// translate \n to \r for br@y++ terminal
	if (var == '\n') USART_Transmit('\r');
     b2a:	8a 30       	cpi	r24, 0x0A	; 10
     b2c:	11 f4       	brne	.+4      	; 0xb32 <USART_putchar_printf+0xc>
     b2e:	8d e0       	ldi	r24, 0x0D	; 13
     b30:	f2 df       	rcall	.-28     	; 0xb16 <USART_Transmit>
	USART_Transmit(var);
     b32:	8c 2f       	mov	r24, r28
     b34:	f0 df       	rcall	.-32     	; 0xb16 <USART_Transmit>
	return 0;
     b36:	80 e0       	ldi	r24, 0x00	; 0
     b38:	90 e0       	ldi	r25, 0x00	; 0
     b3a:	cf 91       	pop	r28
     b3c:	08 95       	ret

00000b3e <printf>:
     b3e:	cf 93       	push	r28
     b40:	df 93       	push	r29
     b42:	cd b7       	in	r28, 0x3d	; 61
     b44:	de b7       	in	r29, 0x3e	; 62
     b46:	ae 01       	movw	r20, r28
     b48:	4a 5f       	subi	r20, 0xFA	; 250
     b4a:	5f 4f       	sbci	r21, 0xFF	; 255
     b4c:	fa 01       	movw	r30, r20
     b4e:	61 91       	ld	r22, Z+
     b50:	71 91       	ld	r23, Z+
     b52:	af 01       	movw	r20, r30
     b54:	80 91 a6 05 	lds	r24, 0x05A6	; 0x8005a6 <__iob+0x2>
     b58:	90 91 a7 05 	lds	r25, 0x05A7	; 0x8005a7 <__iob+0x3>
     b5c:	33 d0       	rcall	.+102    	; 0xbc4 <vfprintf>
     b5e:	df 91       	pop	r29
     b60:	cf 91       	pop	r28
     b62:	08 95       	ret

00000b64 <puts>:
     b64:	0f 93       	push	r16
     b66:	1f 93       	push	r17
     b68:	cf 93       	push	r28
     b6a:	df 93       	push	r29
     b6c:	e0 91 a6 05 	lds	r30, 0x05A6	; 0x8005a6 <__iob+0x2>
     b70:	f0 91 a7 05 	lds	r31, 0x05A7	; 0x8005a7 <__iob+0x3>
     b74:	23 81       	ldd	r18, Z+3	; 0x03
     b76:	21 ff       	sbrs	r18, 1
     b78:	1b c0       	rjmp	.+54     	; 0xbb0 <puts+0x4c>
     b7a:	8c 01       	movw	r16, r24
     b7c:	d0 e0       	ldi	r29, 0x00	; 0
     b7e:	c0 e0       	ldi	r28, 0x00	; 0
     b80:	f8 01       	movw	r30, r16
     b82:	81 91       	ld	r24, Z+
     b84:	8f 01       	movw	r16, r30
     b86:	60 91 a6 05 	lds	r22, 0x05A6	; 0x8005a6 <__iob+0x2>
     b8a:	70 91 a7 05 	lds	r23, 0x05A7	; 0x8005a7 <__iob+0x3>
     b8e:	db 01       	movw	r26, r22
     b90:	18 96       	adiw	r26, 0x08	; 8
     b92:	ed 91       	ld	r30, X+
     b94:	fc 91       	ld	r31, X
     b96:	19 97       	sbiw	r26, 0x09	; 9
     b98:	88 23       	and	r24, r24
     b9a:	31 f0       	breq	.+12     	; 0xba8 <puts+0x44>
     b9c:	19 95       	eicall
     b9e:	89 2b       	or	r24, r25
     ba0:	79 f3       	breq	.-34     	; 0xb80 <puts+0x1c>
     ba2:	df ef       	ldi	r29, 0xFF	; 255
     ba4:	cf ef       	ldi	r28, 0xFF	; 255
     ba6:	ec cf       	rjmp	.-40     	; 0xb80 <puts+0x1c>
     ba8:	8a e0       	ldi	r24, 0x0A	; 10
     baa:	19 95       	eicall
     bac:	89 2b       	or	r24, r25
     bae:	19 f0       	breq	.+6      	; 0xbb6 <puts+0x52>
     bb0:	8f ef       	ldi	r24, 0xFF	; 255
     bb2:	9f ef       	ldi	r25, 0xFF	; 255
     bb4:	02 c0       	rjmp	.+4      	; 0xbba <puts+0x56>
     bb6:	8d 2f       	mov	r24, r29
     bb8:	9c 2f       	mov	r25, r28
     bba:	df 91       	pop	r29
     bbc:	cf 91       	pop	r28
     bbe:	1f 91       	pop	r17
     bc0:	0f 91       	pop	r16
     bc2:	08 95       	ret

00000bc4 <vfprintf>:
     bc4:	2f 92       	push	r2
     bc6:	3f 92       	push	r3
     bc8:	4f 92       	push	r4
     bca:	5f 92       	push	r5
     bcc:	6f 92       	push	r6
     bce:	7f 92       	push	r7
     bd0:	8f 92       	push	r8
     bd2:	9f 92       	push	r9
     bd4:	af 92       	push	r10
     bd6:	bf 92       	push	r11
     bd8:	cf 92       	push	r12
     bda:	df 92       	push	r13
     bdc:	ef 92       	push	r14
     bde:	ff 92       	push	r15
     be0:	0f 93       	push	r16
     be2:	1f 93       	push	r17
     be4:	cf 93       	push	r28
     be6:	df 93       	push	r29
     be8:	cd b7       	in	r28, 0x3d	; 61
     bea:	de b7       	in	r29, 0x3e	; 62
     bec:	2b 97       	sbiw	r28, 0x0b	; 11
     bee:	0f b6       	in	r0, 0x3f	; 63
     bf0:	f8 94       	cli
     bf2:	de bf       	out	0x3e, r29	; 62
     bf4:	0f be       	out	0x3f, r0	; 63
     bf6:	cd bf       	out	0x3d, r28	; 61
     bf8:	6c 01       	movw	r12, r24
     bfa:	7b 01       	movw	r14, r22
     bfc:	8a 01       	movw	r16, r20
     bfe:	fc 01       	movw	r30, r24
     c00:	17 82       	std	Z+7, r1	; 0x07
     c02:	16 82       	std	Z+6, r1	; 0x06
     c04:	83 81       	ldd	r24, Z+3	; 0x03
     c06:	81 ff       	sbrs	r24, 1
     c08:	bf c1       	rjmp	.+894    	; 0xf88 <vfprintf+0x3c4>
     c0a:	ce 01       	movw	r24, r28
     c0c:	01 96       	adiw	r24, 0x01	; 1
     c0e:	3c 01       	movw	r6, r24
     c10:	f6 01       	movw	r30, r12
     c12:	93 81       	ldd	r25, Z+3	; 0x03
     c14:	f7 01       	movw	r30, r14
     c16:	93 fd       	sbrc	r25, 3
     c18:	85 91       	lpm	r24, Z+
     c1a:	93 ff       	sbrs	r25, 3
     c1c:	81 91       	ld	r24, Z+
     c1e:	7f 01       	movw	r14, r30
     c20:	88 23       	and	r24, r24
     c22:	09 f4       	brne	.+2      	; 0xc26 <vfprintf+0x62>
     c24:	ad c1       	rjmp	.+858    	; 0xf80 <vfprintf+0x3bc>
     c26:	85 32       	cpi	r24, 0x25	; 37
     c28:	39 f4       	brne	.+14     	; 0xc38 <vfprintf+0x74>
     c2a:	93 fd       	sbrc	r25, 3
     c2c:	85 91       	lpm	r24, Z+
     c2e:	93 ff       	sbrs	r25, 3
     c30:	81 91       	ld	r24, Z+
     c32:	7f 01       	movw	r14, r30
     c34:	85 32       	cpi	r24, 0x25	; 37
     c36:	21 f4       	brne	.+8      	; 0xc40 <vfprintf+0x7c>
     c38:	b6 01       	movw	r22, r12
     c3a:	90 e0       	ldi	r25, 0x00	; 0
     c3c:	d6 d1       	rcall	.+940    	; 0xfea <fputc>
     c3e:	e8 cf       	rjmp	.-48     	; 0xc10 <vfprintf+0x4c>
     c40:	91 2c       	mov	r9, r1
     c42:	21 2c       	mov	r2, r1
     c44:	31 2c       	mov	r3, r1
     c46:	ff e1       	ldi	r31, 0x1F	; 31
     c48:	f3 15       	cp	r31, r3
     c4a:	d8 f0       	brcs	.+54     	; 0xc82 <vfprintf+0xbe>
     c4c:	8b 32       	cpi	r24, 0x2B	; 43
     c4e:	79 f0       	breq	.+30     	; 0xc6e <vfprintf+0xaa>
     c50:	38 f4       	brcc	.+14     	; 0xc60 <vfprintf+0x9c>
     c52:	80 32       	cpi	r24, 0x20	; 32
     c54:	79 f0       	breq	.+30     	; 0xc74 <vfprintf+0xb0>
     c56:	83 32       	cpi	r24, 0x23	; 35
     c58:	a1 f4       	brne	.+40     	; 0xc82 <vfprintf+0xbe>
     c5a:	23 2d       	mov	r18, r3
     c5c:	20 61       	ori	r18, 0x10	; 16
     c5e:	1d c0       	rjmp	.+58     	; 0xc9a <vfprintf+0xd6>
     c60:	8d 32       	cpi	r24, 0x2D	; 45
     c62:	61 f0       	breq	.+24     	; 0xc7c <vfprintf+0xb8>
     c64:	80 33       	cpi	r24, 0x30	; 48
     c66:	69 f4       	brne	.+26     	; 0xc82 <vfprintf+0xbe>
     c68:	23 2d       	mov	r18, r3
     c6a:	21 60       	ori	r18, 0x01	; 1
     c6c:	16 c0       	rjmp	.+44     	; 0xc9a <vfprintf+0xd6>
     c6e:	83 2d       	mov	r24, r3
     c70:	82 60       	ori	r24, 0x02	; 2
     c72:	38 2e       	mov	r3, r24
     c74:	e3 2d       	mov	r30, r3
     c76:	e4 60       	ori	r30, 0x04	; 4
     c78:	3e 2e       	mov	r3, r30
     c7a:	2a c0       	rjmp	.+84     	; 0xcd0 <vfprintf+0x10c>
     c7c:	f3 2d       	mov	r31, r3
     c7e:	f8 60       	ori	r31, 0x08	; 8
     c80:	1d c0       	rjmp	.+58     	; 0xcbc <vfprintf+0xf8>
     c82:	37 fc       	sbrc	r3, 7
     c84:	2d c0       	rjmp	.+90     	; 0xce0 <vfprintf+0x11c>
     c86:	20 ed       	ldi	r18, 0xD0	; 208
     c88:	28 0f       	add	r18, r24
     c8a:	2a 30       	cpi	r18, 0x0A	; 10
     c8c:	40 f0       	brcs	.+16     	; 0xc9e <vfprintf+0xda>
     c8e:	8e 32       	cpi	r24, 0x2E	; 46
     c90:	b9 f4       	brne	.+46     	; 0xcc0 <vfprintf+0xfc>
     c92:	36 fc       	sbrc	r3, 6
     c94:	75 c1       	rjmp	.+746    	; 0xf80 <vfprintf+0x3bc>
     c96:	23 2d       	mov	r18, r3
     c98:	20 64       	ori	r18, 0x40	; 64
     c9a:	32 2e       	mov	r3, r18
     c9c:	19 c0       	rjmp	.+50     	; 0xcd0 <vfprintf+0x10c>
     c9e:	36 fe       	sbrs	r3, 6
     ca0:	06 c0       	rjmp	.+12     	; 0xcae <vfprintf+0xea>
     ca2:	8a e0       	ldi	r24, 0x0A	; 10
     ca4:	98 9e       	mul	r9, r24
     ca6:	20 0d       	add	r18, r0
     ca8:	11 24       	eor	r1, r1
     caa:	92 2e       	mov	r9, r18
     cac:	11 c0       	rjmp	.+34     	; 0xcd0 <vfprintf+0x10c>
     cae:	ea e0       	ldi	r30, 0x0A	; 10
     cb0:	2e 9e       	mul	r2, r30
     cb2:	20 0d       	add	r18, r0
     cb4:	11 24       	eor	r1, r1
     cb6:	22 2e       	mov	r2, r18
     cb8:	f3 2d       	mov	r31, r3
     cba:	f0 62       	ori	r31, 0x20	; 32
     cbc:	3f 2e       	mov	r3, r31
     cbe:	08 c0       	rjmp	.+16     	; 0xcd0 <vfprintf+0x10c>
     cc0:	8c 36       	cpi	r24, 0x6C	; 108
     cc2:	21 f4       	brne	.+8      	; 0xccc <vfprintf+0x108>
     cc4:	83 2d       	mov	r24, r3
     cc6:	80 68       	ori	r24, 0x80	; 128
     cc8:	38 2e       	mov	r3, r24
     cca:	02 c0       	rjmp	.+4      	; 0xcd0 <vfprintf+0x10c>
     ccc:	88 36       	cpi	r24, 0x68	; 104
     cce:	41 f4       	brne	.+16     	; 0xce0 <vfprintf+0x11c>
     cd0:	f7 01       	movw	r30, r14
     cd2:	93 fd       	sbrc	r25, 3
     cd4:	85 91       	lpm	r24, Z+
     cd6:	93 ff       	sbrs	r25, 3
     cd8:	81 91       	ld	r24, Z+
     cda:	7f 01       	movw	r14, r30
     cdc:	81 11       	cpse	r24, r1
     cde:	b3 cf       	rjmp	.-154    	; 0xc46 <vfprintf+0x82>
     ce0:	98 2f       	mov	r25, r24
     ce2:	9f 7d       	andi	r25, 0xDF	; 223
     ce4:	95 54       	subi	r25, 0x45	; 69
     ce6:	93 30       	cpi	r25, 0x03	; 3
     ce8:	28 f4       	brcc	.+10     	; 0xcf4 <vfprintf+0x130>
     cea:	0c 5f       	subi	r16, 0xFC	; 252
     cec:	1f 4f       	sbci	r17, 0xFF	; 255
     cee:	9f e3       	ldi	r25, 0x3F	; 63
     cf0:	99 83       	std	Y+1, r25	; 0x01
     cf2:	0d c0       	rjmp	.+26     	; 0xd0e <vfprintf+0x14a>
     cf4:	83 36       	cpi	r24, 0x63	; 99
     cf6:	31 f0       	breq	.+12     	; 0xd04 <vfprintf+0x140>
     cf8:	83 37       	cpi	r24, 0x73	; 115
     cfa:	71 f0       	breq	.+28     	; 0xd18 <vfprintf+0x154>
     cfc:	83 35       	cpi	r24, 0x53	; 83
     cfe:	09 f0       	breq	.+2      	; 0xd02 <vfprintf+0x13e>
     d00:	55 c0       	rjmp	.+170    	; 0xdac <vfprintf+0x1e8>
     d02:	20 c0       	rjmp	.+64     	; 0xd44 <vfprintf+0x180>
     d04:	f8 01       	movw	r30, r16
     d06:	80 81       	ld	r24, Z
     d08:	89 83       	std	Y+1, r24	; 0x01
     d0a:	0e 5f       	subi	r16, 0xFE	; 254
     d0c:	1f 4f       	sbci	r17, 0xFF	; 255
     d0e:	88 24       	eor	r8, r8
     d10:	83 94       	inc	r8
     d12:	91 2c       	mov	r9, r1
     d14:	53 01       	movw	r10, r6
     d16:	12 c0       	rjmp	.+36     	; 0xd3c <vfprintf+0x178>
     d18:	28 01       	movw	r4, r16
     d1a:	f2 e0       	ldi	r31, 0x02	; 2
     d1c:	4f 0e       	add	r4, r31
     d1e:	51 1c       	adc	r5, r1
     d20:	f8 01       	movw	r30, r16
     d22:	a0 80       	ld	r10, Z
     d24:	b1 80       	ldd	r11, Z+1	; 0x01
     d26:	36 fe       	sbrs	r3, 6
     d28:	03 c0       	rjmp	.+6      	; 0xd30 <vfprintf+0x16c>
     d2a:	69 2d       	mov	r22, r9
     d2c:	70 e0       	ldi	r23, 0x00	; 0
     d2e:	02 c0       	rjmp	.+4      	; 0xd34 <vfprintf+0x170>
     d30:	6f ef       	ldi	r22, 0xFF	; 255
     d32:	7f ef       	ldi	r23, 0xFF	; 255
     d34:	c5 01       	movw	r24, r10
     d36:	4e d1       	rcall	.+668    	; 0xfd4 <strnlen>
     d38:	4c 01       	movw	r8, r24
     d3a:	82 01       	movw	r16, r4
     d3c:	f3 2d       	mov	r31, r3
     d3e:	ff 77       	andi	r31, 0x7F	; 127
     d40:	3f 2e       	mov	r3, r31
     d42:	15 c0       	rjmp	.+42     	; 0xd6e <vfprintf+0x1aa>
     d44:	28 01       	movw	r4, r16
     d46:	22 e0       	ldi	r18, 0x02	; 2
     d48:	42 0e       	add	r4, r18
     d4a:	51 1c       	adc	r5, r1
     d4c:	f8 01       	movw	r30, r16
     d4e:	a0 80       	ld	r10, Z
     d50:	b1 80       	ldd	r11, Z+1	; 0x01
     d52:	36 fe       	sbrs	r3, 6
     d54:	03 c0       	rjmp	.+6      	; 0xd5c <vfprintf+0x198>
     d56:	69 2d       	mov	r22, r9
     d58:	70 e0       	ldi	r23, 0x00	; 0
     d5a:	02 c0       	rjmp	.+4      	; 0xd60 <vfprintf+0x19c>
     d5c:	6f ef       	ldi	r22, 0xFF	; 255
     d5e:	7f ef       	ldi	r23, 0xFF	; 255
     d60:	c5 01       	movw	r24, r10
     d62:	2d d1       	rcall	.+602    	; 0xfbe <strnlen_P>
     d64:	4c 01       	movw	r8, r24
     d66:	f3 2d       	mov	r31, r3
     d68:	f0 68       	ori	r31, 0x80	; 128
     d6a:	3f 2e       	mov	r3, r31
     d6c:	82 01       	movw	r16, r4
     d6e:	33 fc       	sbrc	r3, 3
     d70:	19 c0       	rjmp	.+50     	; 0xda4 <vfprintf+0x1e0>
     d72:	82 2d       	mov	r24, r2
     d74:	90 e0       	ldi	r25, 0x00	; 0
     d76:	88 16       	cp	r8, r24
     d78:	99 06       	cpc	r9, r25
     d7a:	a0 f4       	brcc	.+40     	; 0xda4 <vfprintf+0x1e0>
     d7c:	b6 01       	movw	r22, r12
     d7e:	80 e2       	ldi	r24, 0x20	; 32
     d80:	90 e0       	ldi	r25, 0x00	; 0
     d82:	33 d1       	rcall	.+614    	; 0xfea <fputc>
     d84:	2a 94       	dec	r2
     d86:	f5 cf       	rjmp	.-22     	; 0xd72 <vfprintf+0x1ae>
     d88:	f5 01       	movw	r30, r10
     d8a:	37 fc       	sbrc	r3, 7
     d8c:	85 91       	lpm	r24, Z+
     d8e:	37 fe       	sbrs	r3, 7
     d90:	81 91       	ld	r24, Z+
     d92:	5f 01       	movw	r10, r30
     d94:	b6 01       	movw	r22, r12
     d96:	90 e0       	ldi	r25, 0x00	; 0
     d98:	28 d1       	rcall	.+592    	; 0xfea <fputc>
     d9a:	21 10       	cpse	r2, r1
     d9c:	2a 94       	dec	r2
     d9e:	21 e0       	ldi	r18, 0x01	; 1
     da0:	82 1a       	sub	r8, r18
     da2:	91 08       	sbc	r9, r1
     da4:	81 14       	cp	r8, r1
     da6:	91 04       	cpc	r9, r1
     da8:	79 f7       	brne	.-34     	; 0xd88 <vfprintf+0x1c4>
     daa:	e1 c0       	rjmp	.+450    	; 0xf6e <vfprintf+0x3aa>
     dac:	84 36       	cpi	r24, 0x64	; 100
     dae:	11 f0       	breq	.+4      	; 0xdb4 <vfprintf+0x1f0>
     db0:	89 36       	cpi	r24, 0x69	; 105
     db2:	39 f5       	brne	.+78     	; 0xe02 <vfprintf+0x23e>
     db4:	f8 01       	movw	r30, r16
     db6:	37 fe       	sbrs	r3, 7
     db8:	07 c0       	rjmp	.+14     	; 0xdc8 <vfprintf+0x204>
     dba:	60 81       	ld	r22, Z
     dbc:	71 81       	ldd	r23, Z+1	; 0x01
     dbe:	82 81       	ldd	r24, Z+2	; 0x02
     dc0:	93 81       	ldd	r25, Z+3	; 0x03
     dc2:	0c 5f       	subi	r16, 0xFC	; 252
     dc4:	1f 4f       	sbci	r17, 0xFF	; 255
     dc6:	08 c0       	rjmp	.+16     	; 0xdd8 <vfprintf+0x214>
     dc8:	60 81       	ld	r22, Z
     dca:	71 81       	ldd	r23, Z+1	; 0x01
     dcc:	07 2e       	mov	r0, r23
     dce:	00 0c       	add	r0, r0
     dd0:	88 0b       	sbc	r24, r24
     dd2:	99 0b       	sbc	r25, r25
     dd4:	0e 5f       	subi	r16, 0xFE	; 254
     dd6:	1f 4f       	sbci	r17, 0xFF	; 255
     dd8:	f3 2d       	mov	r31, r3
     dda:	ff 76       	andi	r31, 0x6F	; 111
     ddc:	3f 2e       	mov	r3, r31
     dde:	97 ff       	sbrs	r25, 7
     de0:	09 c0       	rjmp	.+18     	; 0xdf4 <vfprintf+0x230>
     de2:	90 95       	com	r25
     de4:	80 95       	com	r24
     de6:	70 95       	com	r23
     de8:	61 95       	neg	r22
     dea:	7f 4f       	sbci	r23, 0xFF	; 255
     dec:	8f 4f       	sbci	r24, 0xFF	; 255
     dee:	9f 4f       	sbci	r25, 0xFF	; 255
     df0:	f0 68       	ori	r31, 0x80	; 128
     df2:	3f 2e       	mov	r3, r31
     df4:	2a e0       	ldi	r18, 0x0A	; 10
     df6:	30 e0       	ldi	r19, 0x00	; 0
     df8:	a3 01       	movw	r20, r6
     dfa:	33 d1       	rcall	.+614    	; 0x1062 <__ultoa_invert>
     dfc:	88 2e       	mov	r8, r24
     dfe:	86 18       	sub	r8, r6
     e00:	44 c0       	rjmp	.+136    	; 0xe8a <vfprintf+0x2c6>
     e02:	85 37       	cpi	r24, 0x75	; 117
     e04:	31 f4       	brne	.+12     	; 0xe12 <vfprintf+0x24e>
     e06:	23 2d       	mov	r18, r3
     e08:	2f 7e       	andi	r18, 0xEF	; 239
     e0a:	b2 2e       	mov	r11, r18
     e0c:	2a e0       	ldi	r18, 0x0A	; 10
     e0e:	30 e0       	ldi	r19, 0x00	; 0
     e10:	25 c0       	rjmp	.+74     	; 0xe5c <vfprintf+0x298>
     e12:	93 2d       	mov	r25, r3
     e14:	99 7f       	andi	r25, 0xF9	; 249
     e16:	b9 2e       	mov	r11, r25
     e18:	8f 36       	cpi	r24, 0x6F	; 111
     e1a:	c1 f0       	breq	.+48     	; 0xe4c <vfprintf+0x288>
     e1c:	18 f4       	brcc	.+6      	; 0xe24 <vfprintf+0x260>
     e1e:	88 35       	cpi	r24, 0x58	; 88
     e20:	79 f0       	breq	.+30     	; 0xe40 <vfprintf+0x27c>
     e22:	ae c0       	rjmp	.+348    	; 0xf80 <vfprintf+0x3bc>
     e24:	80 37       	cpi	r24, 0x70	; 112
     e26:	19 f0       	breq	.+6      	; 0xe2e <vfprintf+0x26a>
     e28:	88 37       	cpi	r24, 0x78	; 120
     e2a:	21 f0       	breq	.+8      	; 0xe34 <vfprintf+0x270>
     e2c:	a9 c0       	rjmp	.+338    	; 0xf80 <vfprintf+0x3bc>
     e2e:	e9 2f       	mov	r30, r25
     e30:	e0 61       	ori	r30, 0x10	; 16
     e32:	be 2e       	mov	r11, r30
     e34:	b4 fe       	sbrs	r11, 4
     e36:	0d c0       	rjmp	.+26     	; 0xe52 <vfprintf+0x28e>
     e38:	fb 2d       	mov	r31, r11
     e3a:	f4 60       	ori	r31, 0x04	; 4
     e3c:	bf 2e       	mov	r11, r31
     e3e:	09 c0       	rjmp	.+18     	; 0xe52 <vfprintf+0x28e>
     e40:	34 fe       	sbrs	r3, 4
     e42:	0a c0       	rjmp	.+20     	; 0xe58 <vfprintf+0x294>
     e44:	29 2f       	mov	r18, r25
     e46:	26 60       	ori	r18, 0x06	; 6
     e48:	b2 2e       	mov	r11, r18
     e4a:	06 c0       	rjmp	.+12     	; 0xe58 <vfprintf+0x294>
     e4c:	28 e0       	ldi	r18, 0x08	; 8
     e4e:	30 e0       	ldi	r19, 0x00	; 0
     e50:	05 c0       	rjmp	.+10     	; 0xe5c <vfprintf+0x298>
     e52:	20 e1       	ldi	r18, 0x10	; 16
     e54:	30 e0       	ldi	r19, 0x00	; 0
     e56:	02 c0       	rjmp	.+4      	; 0xe5c <vfprintf+0x298>
     e58:	20 e1       	ldi	r18, 0x10	; 16
     e5a:	32 e0       	ldi	r19, 0x02	; 2
     e5c:	f8 01       	movw	r30, r16
     e5e:	b7 fe       	sbrs	r11, 7
     e60:	07 c0       	rjmp	.+14     	; 0xe70 <vfprintf+0x2ac>
     e62:	60 81       	ld	r22, Z
     e64:	71 81       	ldd	r23, Z+1	; 0x01
     e66:	82 81       	ldd	r24, Z+2	; 0x02
     e68:	93 81       	ldd	r25, Z+3	; 0x03
     e6a:	0c 5f       	subi	r16, 0xFC	; 252
     e6c:	1f 4f       	sbci	r17, 0xFF	; 255
     e6e:	06 c0       	rjmp	.+12     	; 0xe7c <vfprintf+0x2b8>
     e70:	60 81       	ld	r22, Z
     e72:	71 81       	ldd	r23, Z+1	; 0x01
     e74:	80 e0       	ldi	r24, 0x00	; 0
     e76:	90 e0       	ldi	r25, 0x00	; 0
     e78:	0e 5f       	subi	r16, 0xFE	; 254
     e7a:	1f 4f       	sbci	r17, 0xFF	; 255
     e7c:	a3 01       	movw	r20, r6
     e7e:	f1 d0       	rcall	.+482    	; 0x1062 <__ultoa_invert>
     e80:	88 2e       	mov	r8, r24
     e82:	86 18       	sub	r8, r6
     e84:	fb 2d       	mov	r31, r11
     e86:	ff 77       	andi	r31, 0x7F	; 127
     e88:	3f 2e       	mov	r3, r31
     e8a:	36 fe       	sbrs	r3, 6
     e8c:	0d c0       	rjmp	.+26     	; 0xea8 <vfprintf+0x2e4>
     e8e:	23 2d       	mov	r18, r3
     e90:	2e 7f       	andi	r18, 0xFE	; 254
     e92:	a2 2e       	mov	r10, r18
     e94:	89 14       	cp	r8, r9
     e96:	58 f4       	brcc	.+22     	; 0xeae <vfprintf+0x2ea>
     e98:	34 fe       	sbrs	r3, 4
     e9a:	0b c0       	rjmp	.+22     	; 0xeb2 <vfprintf+0x2ee>
     e9c:	32 fc       	sbrc	r3, 2
     e9e:	09 c0       	rjmp	.+18     	; 0xeb2 <vfprintf+0x2ee>
     ea0:	83 2d       	mov	r24, r3
     ea2:	8e 7e       	andi	r24, 0xEE	; 238
     ea4:	a8 2e       	mov	r10, r24
     ea6:	05 c0       	rjmp	.+10     	; 0xeb2 <vfprintf+0x2ee>
     ea8:	b8 2c       	mov	r11, r8
     eaa:	a3 2c       	mov	r10, r3
     eac:	03 c0       	rjmp	.+6      	; 0xeb4 <vfprintf+0x2f0>
     eae:	b8 2c       	mov	r11, r8
     eb0:	01 c0       	rjmp	.+2      	; 0xeb4 <vfprintf+0x2f0>
     eb2:	b9 2c       	mov	r11, r9
     eb4:	a4 fe       	sbrs	r10, 4
     eb6:	0f c0       	rjmp	.+30     	; 0xed6 <vfprintf+0x312>
     eb8:	fe 01       	movw	r30, r28
     eba:	e8 0d       	add	r30, r8
     ebc:	f1 1d       	adc	r31, r1
     ebe:	80 81       	ld	r24, Z
     ec0:	80 33       	cpi	r24, 0x30	; 48
     ec2:	21 f4       	brne	.+8      	; 0xecc <vfprintf+0x308>
     ec4:	9a 2d       	mov	r25, r10
     ec6:	99 7e       	andi	r25, 0xE9	; 233
     ec8:	a9 2e       	mov	r10, r25
     eca:	09 c0       	rjmp	.+18     	; 0xede <vfprintf+0x31a>
     ecc:	a2 fe       	sbrs	r10, 2
     ece:	06 c0       	rjmp	.+12     	; 0xedc <vfprintf+0x318>
     ed0:	b3 94       	inc	r11
     ed2:	b3 94       	inc	r11
     ed4:	04 c0       	rjmp	.+8      	; 0xede <vfprintf+0x31a>
     ed6:	8a 2d       	mov	r24, r10
     ed8:	86 78       	andi	r24, 0x86	; 134
     eda:	09 f0       	breq	.+2      	; 0xede <vfprintf+0x31a>
     edc:	b3 94       	inc	r11
     ede:	a3 fc       	sbrc	r10, 3
     ee0:	10 c0       	rjmp	.+32     	; 0xf02 <vfprintf+0x33e>
     ee2:	a0 fe       	sbrs	r10, 0
     ee4:	06 c0       	rjmp	.+12     	; 0xef2 <vfprintf+0x32e>
     ee6:	b2 14       	cp	r11, r2
     ee8:	80 f4       	brcc	.+32     	; 0xf0a <vfprintf+0x346>
     eea:	28 0c       	add	r2, r8
     eec:	92 2c       	mov	r9, r2
     eee:	9b 18       	sub	r9, r11
     ef0:	0d c0       	rjmp	.+26     	; 0xf0c <vfprintf+0x348>
     ef2:	b2 14       	cp	r11, r2
     ef4:	58 f4       	brcc	.+22     	; 0xf0c <vfprintf+0x348>
     ef6:	b6 01       	movw	r22, r12
     ef8:	80 e2       	ldi	r24, 0x20	; 32
     efa:	90 e0       	ldi	r25, 0x00	; 0
     efc:	76 d0       	rcall	.+236    	; 0xfea <fputc>
     efe:	b3 94       	inc	r11
     f00:	f8 cf       	rjmp	.-16     	; 0xef2 <vfprintf+0x32e>
     f02:	b2 14       	cp	r11, r2
     f04:	18 f4       	brcc	.+6      	; 0xf0c <vfprintf+0x348>
     f06:	2b 18       	sub	r2, r11
     f08:	02 c0       	rjmp	.+4      	; 0xf0e <vfprintf+0x34a>
     f0a:	98 2c       	mov	r9, r8
     f0c:	21 2c       	mov	r2, r1
     f0e:	a4 fe       	sbrs	r10, 4
     f10:	0f c0       	rjmp	.+30     	; 0xf30 <vfprintf+0x36c>
     f12:	b6 01       	movw	r22, r12
     f14:	80 e3       	ldi	r24, 0x30	; 48
     f16:	90 e0       	ldi	r25, 0x00	; 0
     f18:	68 d0       	rcall	.+208    	; 0xfea <fputc>
     f1a:	a2 fe       	sbrs	r10, 2
     f1c:	16 c0       	rjmp	.+44     	; 0xf4a <vfprintf+0x386>
     f1e:	a1 fc       	sbrc	r10, 1
     f20:	03 c0       	rjmp	.+6      	; 0xf28 <vfprintf+0x364>
     f22:	88 e7       	ldi	r24, 0x78	; 120
     f24:	90 e0       	ldi	r25, 0x00	; 0
     f26:	02 c0       	rjmp	.+4      	; 0xf2c <vfprintf+0x368>
     f28:	88 e5       	ldi	r24, 0x58	; 88
     f2a:	90 e0       	ldi	r25, 0x00	; 0
     f2c:	b6 01       	movw	r22, r12
     f2e:	0c c0       	rjmp	.+24     	; 0xf48 <vfprintf+0x384>
     f30:	8a 2d       	mov	r24, r10
     f32:	86 78       	andi	r24, 0x86	; 134
     f34:	51 f0       	breq	.+20     	; 0xf4a <vfprintf+0x386>
     f36:	a1 fe       	sbrs	r10, 1
     f38:	02 c0       	rjmp	.+4      	; 0xf3e <vfprintf+0x37a>
     f3a:	8b e2       	ldi	r24, 0x2B	; 43
     f3c:	01 c0       	rjmp	.+2      	; 0xf40 <vfprintf+0x37c>
     f3e:	80 e2       	ldi	r24, 0x20	; 32
     f40:	a7 fc       	sbrc	r10, 7
     f42:	8d e2       	ldi	r24, 0x2D	; 45
     f44:	b6 01       	movw	r22, r12
     f46:	90 e0       	ldi	r25, 0x00	; 0
     f48:	50 d0       	rcall	.+160    	; 0xfea <fputc>
     f4a:	89 14       	cp	r8, r9
     f4c:	30 f4       	brcc	.+12     	; 0xf5a <vfprintf+0x396>
     f4e:	b6 01       	movw	r22, r12
     f50:	80 e3       	ldi	r24, 0x30	; 48
     f52:	90 e0       	ldi	r25, 0x00	; 0
     f54:	4a d0       	rcall	.+148    	; 0xfea <fputc>
     f56:	9a 94       	dec	r9
     f58:	f8 cf       	rjmp	.-16     	; 0xf4a <vfprintf+0x386>
     f5a:	8a 94       	dec	r8
     f5c:	f3 01       	movw	r30, r6
     f5e:	e8 0d       	add	r30, r8
     f60:	f1 1d       	adc	r31, r1
     f62:	80 81       	ld	r24, Z
     f64:	b6 01       	movw	r22, r12
     f66:	90 e0       	ldi	r25, 0x00	; 0
     f68:	40 d0       	rcall	.+128    	; 0xfea <fputc>
     f6a:	81 10       	cpse	r8, r1
     f6c:	f6 cf       	rjmp	.-20     	; 0xf5a <vfprintf+0x396>
     f6e:	22 20       	and	r2, r2
     f70:	09 f4       	brne	.+2      	; 0xf74 <vfprintf+0x3b0>
     f72:	4e ce       	rjmp	.-868    	; 0xc10 <vfprintf+0x4c>
     f74:	b6 01       	movw	r22, r12
     f76:	80 e2       	ldi	r24, 0x20	; 32
     f78:	90 e0       	ldi	r25, 0x00	; 0
     f7a:	37 d0       	rcall	.+110    	; 0xfea <fputc>
     f7c:	2a 94       	dec	r2
     f7e:	f7 cf       	rjmp	.-18     	; 0xf6e <vfprintf+0x3aa>
     f80:	f6 01       	movw	r30, r12
     f82:	86 81       	ldd	r24, Z+6	; 0x06
     f84:	97 81       	ldd	r25, Z+7	; 0x07
     f86:	02 c0       	rjmp	.+4      	; 0xf8c <vfprintf+0x3c8>
     f88:	8f ef       	ldi	r24, 0xFF	; 255
     f8a:	9f ef       	ldi	r25, 0xFF	; 255
     f8c:	2b 96       	adiw	r28, 0x0b	; 11
     f8e:	0f b6       	in	r0, 0x3f	; 63
     f90:	f8 94       	cli
     f92:	de bf       	out	0x3e, r29	; 62
     f94:	0f be       	out	0x3f, r0	; 63
     f96:	cd bf       	out	0x3d, r28	; 61
     f98:	df 91       	pop	r29
     f9a:	cf 91       	pop	r28
     f9c:	1f 91       	pop	r17
     f9e:	0f 91       	pop	r16
     fa0:	ff 90       	pop	r15
     fa2:	ef 90       	pop	r14
     fa4:	df 90       	pop	r13
     fa6:	cf 90       	pop	r12
     fa8:	bf 90       	pop	r11
     faa:	af 90       	pop	r10
     fac:	9f 90       	pop	r9
     fae:	8f 90       	pop	r8
     fb0:	7f 90       	pop	r7
     fb2:	6f 90       	pop	r6
     fb4:	5f 90       	pop	r5
     fb6:	4f 90       	pop	r4
     fb8:	3f 90       	pop	r3
     fba:	2f 90       	pop	r2
     fbc:	08 95       	ret

00000fbe <strnlen_P>:
     fbe:	fc 01       	movw	r30, r24
     fc0:	05 90       	lpm	r0, Z+
     fc2:	61 50       	subi	r22, 0x01	; 1
     fc4:	70 40       	sbci	r23, 0x00	; 0
     fc6:	01 10       	cpse	r0, r1
     fc8:	d8 f7       	brcc	.-10     	; 0xfc0 <strnlen_P+0x2>
     fca:	80 95       	com	r24
     fcc:	90 95       	com	r25
     fce:	8e 0f       	add	r24, r30
     fd0:	9f 1f       	adc	r25, r31
     fd2:	08 95       	ret

00000fd4 <strnlen>:
     fd4:	fc 01       	movw	r30, r24
     fd6:	61 50       	subi	r22, 0x01	; 1
     fd8:	70 40       	sbci	r23, 0x00	; 0
     fda:	01 90       	ld	r0, Z+
     fdc:	01 10       	cpse	r0, r1
     fde:	d8 f7       	brcc	.-10     	; 0xfd6 <strnlen+0x2>
     fe0:	80 95       	com	r24
     fe2:	90 95       	com	r25
     fe4:	8e 0f       	add	r24, r30
     fe6:	9f 1f       	adc	r25, r31
     fe8:	08 95       	ret

00000fea <fputc>:
     fea:	0f 93       	push	r16
     fec:	1f 93       	push	r17
     fee:	cf 93       	push	r28
     ff0:	df 93       	push	r29
     ff2:	fb 01       	movw	r30, r22
     ff4:	23 81       	ldd	r18, Z+3	; 0x03
     ff6:	21 fd       	sbrc	r18, 1
     ff8:	03 c0       	rjmp	.+6      	; 0x1000 <fputc+0x16>
     ffa:	8f ef       	ldi	r24, 0xFF	; 255
     ffc:	9f ef       	ldi	r25, 0xFF	; 255
     ffe:	2c c0       	rjmp	.+88     	; 0x1058 <fputc+0x6e>
    1000:	22 ff       	sbrs	r18, 2
    1002:	16 c0       	rjmp	.+44     	; 0x1030 <fputc+0x46>
    1004:	46 81       	ldd	r20, Z+6	; 0x06
    1006:	57 81       	ldd	r21, Z+7	; 0x07
    1008:	24 81       	ldd	r18, Z+4	; 0x04
    100a:	35 81       	ldd	r19, Z+5	; 0x05
    100c:	42 17       	cp	r20, r18
    100e:	53 07       	cpc	r21, r19
    1010:	44 f4       	brge	.+16     	; 0x1022 <fputc+0x38>
    1012:	a0 81       	ld	r26, Z
    1014:	b1 81       	ldd	r27, Z+1	; 0x01
    1016:	9d 01       	movw	r18, r26
    1018:	2f 5f       	subi	r18, 0xFF	; 255
    101a:	3f 4f       	sbci	r19, 0xFF	; 255
    101c:	31 83       	std	Z+1, r19	; 0x01
    101e:	20 83       	st	Z, r18
    1020:	8c 93       	st	X, r24
    1022:	26 81       	ldd	r18, Z+6	; 0x06
    1024:	37 81       	ldd	r19, Z+7	; 0x07
    1026:	2f 5f       	subi	r18, 0xFF	; 255
    1028:	3f 4f       	sbci	r19, 0xFF	; 255
    102a:	37 83       	std	Z+7, r19	; 0x07
    102c:	26 83       	std	Z+6, r18	; 0x06
    102e:	14 c0       	rjmp	.+40     	; 0x1058 <fputc+0x6e>
    1030:	8b 01       	movw	r16, r22
    1032:	ec 01       	movw	r28, r24
    1034:	fb 01       	movw	r30, r22
    1036:	00 84       	ldd	r0, Z+8	; 0x08
    1038:	f1 85       	ldd	r31, Z+9	; 0x09
    103a:	e0 2d       	mov	r30, r0
    103c:	19 95       	eicall
    103e:	89 2b       	or	r24, r25
    1040:	e1 f6       	brne	.-72     	; 0xffa <fputc+0x10>
    1042:	d8 01       	movw	r26, r16
    1044:	16 96       	adiw	r26, 0x06	; 6
    1046:	8d 91       	ld	r24, X+
    1048:	9c 91       	ld	r25, X
    104a:	17 97       	sbiw	r26, 0x07	; 7
    104c:	01 96       	adiw	r24, 0x01	; 1
    104e:	17 96       	adiw	r26, 0x07	; 7
    1050:	9c 93       	st	X, r25
    1052:	8e 93       	st	-X, r24
    1054:	16 97       	sbiw	r26, 0x06	; 6
    1056:	ce 01       	movw	r24, r28
    1058:	df 91       	pop	r29
    105a:	cf 91       	pop	r28
    105c:	1f 91       	pop	r17
    105e:	0f 91       	pop	r16
    1060:	08 95       	ret

00001062 <__ultoa_invert>:
    1062:	fa 01       	movw	r30, r20
    1064:	aa 27       	eor	r26, r26
    1066:	28 30       	cpi	r18, 0x08	; 8
    1068:	51 f1       	breq	.+84     	; 0x10be <__ultoa_invert+0x5c>
    106a:	20 31       	cpi	r18, 0x10	; 16
    106c:	81 f1       	breq	.+96     	; 0x10ce <__ultoa_invert+0x6c>
    106e:	e8 94       	clt
    1070:	6f 93       	push	r22
    1072:	6e 7f       	andi	r22, 0xFE	; 254
    1074:	6e 5f       	subi	r22, 0xFE	; 254
    1076:	7f 4f       	sbci	r23, 0xFF	; 255
    1078:	8f 4f       	sbci	r24, 0xFF	; 255
    107a:	9f 4f       	sbci	r25, 0xFF	; 255
    107c:	af 4f       	sbci	r26, 0xFF	; 255
    107e:	b1 e0       	ldi	r27, 0x01	; 1
    1080:	3e d0       	rcall	.+124    	; 0x10fe <__ultoa_invert+0x9c>
    1082:	b4 e0       	ldi	r27, 0x04	; 4
    1084:	3c d0       	rcall	.+120    	; 0x10fe <__ultoa_invert+0x9c>
    1086:	67 0f       	add	r22, r23
    1088:	78 1f       	adc	r23, r24
    108a:	89 1f       	adc	r24, r25
    108c:	9a 1f       	adc	r25, r26
    108e:	a1 1d       	adc	r26, r1
    1090:	68 0f       	add	r22, r24
    1092:	79 1f       	adc	r23, r25
    1094:	8a 1f       	adc	r24, r26
    1096:	91 1d       	adc	r25, r1
    1098:	a1 1d       	adc	r26, r1
    109a:	6a 0f       	add	r22, r26
    109c:	71 1d       	adc	r23, r1
    109e:	81 1d       	adc	r24, r1
    10a0:	91 1d       	adc	r25, r1
    10a2:	a1 1d       	adc	r26, r1
    10a4:	20 d0       	rcall	.+64     	; 0x10e6 <__ultoa_invert+0x84>
    10a6:	09 f4       	brne	.+2      	; 0x10aa <__ultoa_invert+0x48>
    10a8:	68 94       	set
    10aa:	3f 91       	pop	r19
    10ac:	2a e0       	ldi	r18, 0x0A	; 10
    10ae:	26 9f       	mul	r18, r22
    10b0:	11 24       	eor	r1, r1
    10b2:	30 19       	sub	r19, r0
    10b4:	30 5d       	subi	r19, 0xD0	; 208
    10b6:	31 93       	st	Z+, r19
    10b8:	de f6       	brtc	.-74     	; 0x1070 <__ultoa_invert+0xe>
    10ba:	cf 01       	movw	r24, r30
    10bc:	08 95       	ret
    10be:	46 2f       	mov	r20, r22
    10c0:	47 70       	andi	r20, 0x07	; 7
    10c2:	40 5d       	subi	r20, 0xD0	; 208
    10c4:	41 93       	st	Z+, r20
    10c6:	b3 e0       	ldi	r27, 0x03	; 3
    10c8:	0f d0       	rcall	.+30     	; 0x10e8 <__ultoa_invert+0x86>
    10ca:	c9 f7       	brne	.-14     	; 0x10be <__ultoa_invert+0x5c>
    10cc:	f6 cf       	rjmp	.-20     	; 0x10ba <__ultoa_invert+0x58>
    10ce:	46 2f       	mov	r20, r22
    10d0:	4f 70       	andi	r20, 0x0F	; 15
    10d2:	40 5d       	subi	r20, 0xD0	; 208
    10d4:	4a 33       	cpi	r20, 0x3A	; 58
    10d6:	18 f0       	brcs	.+6      	; 0x10de <__ultoa_invert+0x7c>
    10d8:	49 5d       	subi	r20, 0xD9	; 217
    10da:	31 fd       	sbrc	r19, 1
    10dc:	40 52       	subi	r20, 0x20	; 32
    10de:	41 93       	st	Z+, r20
    10e0:	02 d0       	rcall	.+4      	; 0x10e6 <__ultoa_invert+0x84>
    10e2:	a9 f7       	brne	.-22     	; 0x10ce <__ultoa_invert+0x6c>
    10e4:	ea cf       	rjmp	.-44     	; 0x10ba <__ultoa_invert+0x58>
    10e6:	b4 e0       	ldi	r27, 0x04	; 4
    10e8:	a6 95       	lsr	r26
    10ea:	97 95       	ror	r25
    10ec:	87 95       	ror	r24
    10ee:	77 95       	ror	r23
    10f0:	67 95       	ror	r22
    10f2:	ba 95       	dec	r27
    10f4:	c9 f7       	brne	.-14     	; 0x10e8 <__ultoa_invert+0x86>
    10f6:	00 97       	sbiw	r24, 0x00	; 0
    10f8:	61 05       	cpc	r22, r1
    10fa:	71 05       	cpc	r23, r1
    10fc:	08 95       	ret
    10fe:	9b 01       	movw	r18, r22
    1100:	ac 01       	movw	r20, r24
    1102:	0a 2e       	mov	r0, r26
    1104:	06 94       	lsr	r0
    1106:	57 95       	ror	r21
    1108:	47 95       	ror	r20
    110a:	37 95       	ror	r19
    110c:	27 95       	ror	r18
    110e:	ba 95       	dec	r27
    1110:	c9 f7       	brne	.-14     	; 0x1104 <__ultoa_invert+0xa2>
    1112:	62 0f       	add	r22, r18
    1114:	73 1f       	adc	r23, r19
    1116:	84 1f       	adc	r24, r20
    1118:	95 1f       	adc	r25, r21
    111a:	a0 1d       	adc	r26, r0
    111c:	08 95       	ret

0000111e <_exit>:
    111e:	f8 94       	cli

00001120 <__stop_program>:
    1120:	ff cf       	rjmp	.-2      	; 0x1120 <__stop_program>
